(dp0
S'ip'
p1
(dp2
S'rname'
p3
S'`ip`'
p4
sS'sortable'
p5
I2
sS'raw_rname'
p6
S'ip'
p7
sS'notnull'
p8
I01
sS'length'
p9
I512
sS'sql'
p10
S'VARCHAR(512) NOT NULL'
p11
sS'unique'
p12
I00
sS'type'
p13
S'string'
p14
ssS'id'
p15
(dp16
S'rname'
p17
S'`id`'
p18
sS'sortable'
p19
I1
sS'raw_rname'
p20
S'id'
p21
sS'notnull'
p22
I01
sS'length'
p23
I255
sS'sql'
p24
S'VARCHAR(255) NOT NULL'
p25
sS'unique'
p26
I00
sS'type'
p27
S'string'
p28
ssS'description'
p29
(dp30
g3
S'`description`'
p31
sg5
I3
sg6
S'description'
p32
sg8
I01
sg9
I512
sg10
S'VARCHAR(512) NOT NULL'
p33
sg12
I00
sg13
g14
ss.