(dp0
S'os_version'
p1
(dp2
S'rname'
p3
S'`os_version`'
p4
sS'sortable'
p5
I4
sS'raw_rname'
p6
S'os_version'
p7
sS'notnull'
p8
I00
sS'length'
p9
I512
sS'sql'
p10
S'VARCHAR(512)'
p11
sS'unique'
p12
I00
sS'type'
p13
S'string'
p14
ssS'enrolled_flag'
p15
(dp16
S'rname'
p17
S'`enrolled_flag`'
p18
sS'sortable'
p19
I6
sS'raw_rname'
p20
S'enrolled_flag'
p21
sS'notnull'
p22
I00
sS'length'
p23
I512
sS'sql'
p24
S'CHAR(1)'
p25
sS'unique'
p26
I00
sS'type'
p27
S'boolean'
p28
ssS'endpoint_id'
p29
(dp30
S'rname'
p31
S'`endpoint_id`'
p32
sS'sortable'
p33
I1
sS'raw_rname'
p34
S'endpoint_id'
p35
sS'notnull'
p36
I01
sS'length'
p37
I255
sS'sql'
p38
S'VARCHAR(255) NOT NULL'
p39
sS'unique'
p40
I00
sS'type'
p41
S'string'
p42
ssS'ip'
p43
(dp44
g17
S'`ip`'
p45
sg19
I2
sg20
S'ip'
p46
sg22
I01
sg23
I512
sg24
S'VARCHAR(512) NOT NULL'
p47
sg26
I00
sg27
S'string'
p48
ssS'version_os'
p49
(dp50
g17
S'`version_os`'
p51
sg19
I4
sg20
S'version_os'
p52
sg22
I00
sg23
I512
sg24
S'VARCHAR(512)'
p53
sg26
I00
sg27
g48
ssS'owner_id'
p54
(dp55
g17
S'`owner_ID`'
p56
sg19
I3
sg20
S'owner_ID'
p57
sg22
I01
sg23
I512
sg24
S'VARCHAR(512) NOT NULL'
p58
sg26
I00
sg27
g48
ssS'enrollement_timestamp'
p59
(dp60
g17
S'`enrollement_timestamp`'
p61
sg19
I5
sg20
S'enrollement_timestamp'
p62
sg22
I00
sg23
I512
sg24
S'VARCHAR(512)'
p63
sg26
I00
sg27
g48
ss.