(dp0
S'enrollement_timestamp'
p1
(dp2
S'rname'
p3
S'"enrollement_timestamp"'
p4
sS'sortable'
p5
I5
sS'raw_rname'
p6
S'enrollement_timestamp'
p7
sS'notnull'
p8
I00
sS'length'
p9
I512
sS'sql'
p10
S'CHAR(512)'
p11
sS'unique'
p12
I00
sS'type'
p13
S'string'
p14
ssS'enrolled_flag'
p15
(dp16
g3
S'"enrolled_flag"'
p17
sg5
I6
sg6
S'enrolled_flag'
p18
sg8
I00
sg9
I512
sg10
S'CHAR(1)'
p19
sg12
I00
sg13
S'boolean'
p20
ssS'endpoint_id'
p21
(dp22
g3
S'"endpoint_id"'
p23
sg5
I1
sg6
S'endpoint_id'
p24
sg8
I01
sg9
I512
sg10
S'CHAR(512) NOT NULL'
p25
sg12
I00
sg13
g14
ssS'ip'
p26
(dp27
g3
S'"ip"'
p28
sg5
I2
sg6
S'ip'
p29
sg8
I01
sg9
I512
sg10
S'CHAR(512) NOT NULL'
p30
sg12
I00
sg13
g14
ssS'version_os'
p31
(dp32
g3
S'"version_os"'
p33
sg5
I4
sg6
S'version_os'
p34
sg8
I00
sg9
I512
sg10
S'CHAR(512)'
p35
sg12
I00
sg13
g14
ssS'enrollement_stamp'
p36
(dp37
S'rname'
p38
S'"enrollement_stamp"'
p39
sS'sortable'
p40
I5
sS'raw_rname'
p41
S'enrollement_stamp'
p42
sS'notnull'
p43
I00
sS'length'
p44
I512
sS'sql'
p45
S'CHAR(512)'
p46
sS'unique'
p47
I00
sS'type'
p48
S'string'
p49
ssS'owner_id'
p50
(dp51
g3
S'"owner_ID"'
p52
sg5
I3
sg6
S'owner_ID'
p53
sg8
I01
sg9
I512
sg10
S'CHAR(512) NOT NULL'
p54
sg12
I00
sg13
g14
ss.