(dp1
S'output'
p2
S'<class \'gluon.contrib.pymysql.err.InternalError\'> (1060, u"Duplicate column name \'enrollement_timestamp\'")'
p3
sS'layer'
p4
S'C:\\Users\\hd\\PycharmProjects\\untitled\\web2py\\applications\\darkcloud1\\models\\db.py'
p5
sS'code'
p6
S'<code object <module> at 000000000D32A430, file "C:\\Users\\hd\\PycharmProjects\\untitled\\web2py\\applications\\darkcloud1\\models\\db.py", line 7>'
p7
sS'snapshot'
p8
(dp9
S'exception'
p10
(dp11
S'__module__'
p12
S"'gluon.contrib.pymysql.err'"
p13
sS'__getslice__'
p14
S"<method-wrapper '__getslice__' of InternalError object>"
p15
sS'__str__'
p16
S"<method-wrapper '__str__' of InternalError object>"
p17
sS'__reduce__'
p18
S'<built-in method __reduce__ of InternalError object>'
p19
sS'__dict__'
p20
S'{}'
p21
sS'__sizeof__'
p22
S'<built-in method __sizeof__ of InternalError object>'
p23
sS'__weakref__'
p24
S'None'
p25
sS'message'
p26
S"''"
p27
sS'__init__'
p28
S"<method-wrapper '__init__' of InternalError object>"
p29
sS'__setattr__'
p30
S"<method-wrapper '__setattr__' of InternalError object>"
p31
sS'__reduce_ex__'
p32
S'<built-in method __reduce_ex__ of InternalError object>'
p33
sS'__new__'
p34
S'<built-in method __new__ of type object>'
p35
sS'__format__'
p36
S'<built-in method __format__ of InternalError object>'
p37
sS'__class__'
p38
S"<class 'gluon.contrib.pymysql.err.InternalError'>"
p39
sS'__doc__'
p40
S"'Exception raised when the database encounters an...anymore, the transaction is\\n    out of sync, etc.'"
p41
sS'__getitem__'
p42
S"<method-wrapper '__getitem__' of InternalError object>"
p43
sS'__setstate__'
p44
S'<built-in method __setstate__ of InternalError object>'
p45
sS'__getattribute__'
p46
S"<method-wrapper '__getattribute__' of InternalError object>"
p47
sS'args'
p48
S'(1060, u"Duplicate column name \'enrollement_timestamp\'")'
p49
sS'__subclasshook__'
p50
S'<built-in method __subclasshook__ of type object>'
p51
sS'__unicode__'
p52
S'<built-in method __unicode__ of InternalError object>'
p53
sS'__delattr__'
p54
S"<method-wrapper '__delattr__' of InternalError object>"
p55
sS'__repr__'
p56
S"<method-wrapper '__repr__' of InternalError object>"
p57
sS'__hash__'
p58
S"<method-wrapper '__hash__' of InternalError object>"
p59
ssS'evalue'
p60
S'(1060, u"Duplicate column name \'enrollement_timestamp\'")'
p61
sS'request'
p62
cgluon.html
XML_unpickle
p63
(S's\xec^\x00\x00<div><table><tr><td style="font-weight:bold;vertical-align:top;">ajax</td><td style="vertical-align:top;">:</td><td><div>False</div></td></tr><tr><td style="font-weight:bold;vertical-align:top;">application</td><td style="vertical-align:top;">:</td><td><div>darkcloud1</div></td></tr><tr><td style="font-weight:bold;vertical-align:top;">args</td><td style="vertical-align:top;">:</td><td><div><table><tr><td><div>sensors</div></td></tr></table></div></td></tr><tr><td style="font-weight:bold;vertical-align:top;">cid</td><td style="vertical-align:top;">:</td><td><div>None</div></td></tr><tr><td style="font-weight:bold;vertical-align:top;">client</td><td style="vertical-align:top;">:</td><td><div>127.0.0.1</div></td></tr><tr><td style="font-weight:bold;vertical-align:top;">controller</td><td style="vertical-align:top;">:</td><td><div>default</div></td></tr><tr><td style="font-weight:bold;vertical-align:top;">cookies</td><td style="vertical-align:top;">:</td><td><div><table><tr><td style="font-weight:bold;vertical-align:top;">session_id_admin</td><td style="vertical-align:top;">:</td><td><div>127.0.0.1-bcf2fbd0-ee5b-49d8-9a49-31bfcb1c26e0<table><tr><td style="font-weight:bold;vertical-align:top;">comment</td><td style="vertical-align:top;">:</td><td><div></div></td></tr><tr><td style="font-weight:bold;vertical-align:top;">domain</td><td style="vertical-align:top;">:</td><td><div></div></td></tr><tr><td style="font-weight:bold;vertical-align:top;">expires</td><td style="vertical-align:top;">:</td><td><div></div></td></tr><tr><td style="font-weight:bold;vertical-align:top;">httponly</td><td style="vertical-align:top;">:</td><td><div></div></td></tr><tr><td style="font-weight:bold;vertical-align:top;">max-age</td><td style="vertical-align:top;">:</td><td><div></div></td></tr><tr><td style="font-weight:bold;vertical-align:top;">path</td><td style="vertical-align:top;">:</td><td><div></div></td></tr><tr><td style="font-weight:bold;vertical-align:top;">secure</td><td style="vertical-align:top;">:</td><td><div></div></td></tr><tr><td style="font-weight:bold;vertical-align:top;">version</td><td style="vertical-align:top;">:</td><td><div></div></td></tr></table></div></td></tr><tr><td style="font-weight:bold;vertical-align:top;">session_id_darkcloud1</td><td style="vertical-align:top;">:</td><td><div>127.0.0.1-7eecb705-f1a9-426f-ae22-88e750fb5cfa<table><tr><td style="font-weight:bold;vertical-align:top;">comment</td><td style="vertical-align:top;">:</td><td><div></div></td></tr><tr><td style="font-weight:bold;vertical-align:top;">domain</td><td style="vertical-align:top;">:</td><td><div></div></td></tr><tr><td style="font-weight:bold;vertical-align:top;">expires</td><td style="vertical-align:top;">:</td><td><div></div></td></tr><tr><td style="font-weight:bold;vertical-align:top;">httponly</td><td style="vertical-align:top;">:</td><td><div></div></td></tr><tr><td style="font-weight:bold;vertical-align:top;">max-age</td><td style="vertical-align:top;">:</td><td><div></div></td></tr><tr><td style="font-weight:bold;vertical-align:top;">path</td><td style="vertical-align:top;">:</td><td><div></div></td></tr><tr><td style="font-weight:bold;vertical-align:top;">secure</td><td style="vertical-align:top;">:</td><td><div></div></td></tr><tr><td style="font-weight:bold;vertical-align:top;">version</td><td style="vertical-align:top;">:</td><td><div></div></td></tr></table></div></td></tr><tr><td style="font-weight:bold;vertical-align:top;">session_id_welcome</td><td style="vertical-align:top;">:</td><td><div>127.0.0.1-ab6ea133-1347-4ade-94bf-d558af51c690<table><tr><td style="font-weight:bold;vertical-align:top;">comment</td><td style="vertical-align:top;">:</td><td><div></div></td></tr><tr><td style="font-weight:bold;vertical-align:top;">domain</td><td style="vertical-align:top;">:</td><td><div></div></td></tr><tr><td style="font-weight:bold;vertical-align:top;">expires</td><td style="vertical-align:top;">:</td><td><div></div></td></tr><tr><td style="font-weight:bold;vertical-align:top;">httponly</td><td style="vertical-align:top;">:</td><td><div></div></td></tr><tr><td style="font-weight:bold;vertical-align:top;">max-age</td><td style="vertical-align:top;">:</td><td><div></div></td></tr><tr><td style="font-weight:bold;vertical-align:top;">path</td><td style="vertical-align:top;">:</td><td><div></div></td></tr><tr><td style="font-weight:bold;vertical-align:top;">secure</td><td style="vertical-align:top;">:</td><td><div></div></td></tr><tr><td style="font-weight:bold;vertical-align:top;">version</td><td style="vertical-align:top;">:</td><td><div></div></td></tr></table></div></td></tr></table></div></td></tr><tr><td style="font-weight:bold;vertical-align:top;">env</td><td style="vertical-align:top;">:</td><td><div><table><tr><td style="font-weight:bold;vertical-align:top;">HTTP_ACCEPT</td><td style="vertical-align:top;">:</td><td><div>text/html, application/xhtml+xml, image/jxr, */*</div></td></tr><tr><td style="font-weight:bold;vertical-align:top;">HTTP_ACCEPT_ENCODING</td><td style="vertical-align:top;">:</td><td><div>gzip, deflate</div></td></tr><tr><td style="font-weight:bold;vertical-align:top;">HTTP_ACCEPT_LANGUAGE</td><td style="vertical-align:top;">:</td><td><div>en-US</div></td></tr><tr><td style="font-weight:bold;vertical-align:top;">HTTP_CONNECTION</td><td style="vertical-align:top;">:</td><td><div>Keep-Alive</div></td></tr><tr><td style="font-weight:bold;vertical-align:top;">HTTP_COOKIE</td><td style="vertical-align:top;">:</td><td><div>session_id_welcome=127.0.0.1-ab6ea133-1347-4ade-94bf-d558af51c690; session_id_admin=127.0.0.1-bcf2fbd0-ee5b-49d8-9a49-31bfcb1c26e0; session_id_darkcloud1=127.0.0.1-7eecb705-f1a9-426f-ae22-88e750fb5cfa</div></td></tr><tr><td style="font-weight:bold;vertical-align:top;">HTTP_HOST</td><td style="vertical-align:top;">:</td><td><div>127.0.0.1:8000</div></td></tr><tr><td style="font-weight:bold;vertical-align:top;">HTTP_USER_AGENT</td><td style="vertical-align:top;">:</td><td><div>Mozilla/5.0 (Windows NT 10.0; Win64; x64) AppleWebKit/537.36 (KHTML, like Gecko) Chrome/58.0.3029.110 Safari/537.36 Edge/16.16299</div></td></tr><tr><td style="font-weight:bold;vertical-align:top;">PATH_INFO</td><td style="vertical-align:top;">:</td><td><div>/darkcloud1/default/subscriber/sensors</div></td></tr><tr><td style="font-weight:bold;vertical-align:top;">QUERY_STRING</td><td style="vertical-align:top;">:</td><td><div></div></td></tr><tr><td style="font-weight:bold;vertical-align:top;">REMOTE_ADDR</td><td style="vertical-align:top;">:</td><td><div>127.0.0.1</div></td></tr><tr><td style="font-weight:bold;vertical-align:top;">REMOTE_PORT</td><td style="vertical-align:top;">:</td><td><div>50682</div></td></tr><tr><td style="font-weight:bold;vertical-align:top;">REQUEST_METHOD</td><td style="vertical-align:top;">:</td><td><div>GET</div></td></tr><tr><td style="font-weight:bold;vertical-align:top;">SCRIPT_NAME</td><td style="vertical-align:top;">:</td><td><div></div></td></tr><tr><td style="font-weight:bold;vertical-align:top;">SERVER_NAME</td><td style="vertical-align:top;">:</td><td><div>tasneem</div></td></tr><tr><td style="font-weight:bold;vertical-align:top;">SERVER_PORT</td><td style="vertical-align:top;">:</td><td><div>8000</div></td></tr><tr><td style="font-weight:bold;vertical-align:top;">SERVER_PROTOCOL</td><td style="vertical-align:top;">:</td><td><div>HTTP/1.1</div></td></tr><tr><td style="font-weight:bold;vertical-align:top;">SERVER_SOFTWARE</td><td style="vertical-align:top;">:</td><td><div>Rocket 1.2.6</div></td></tr><tr><td style="font-weight:bold;vertical-align:top;">app_folders</td><td style="vertical-align:top;">:</td><td><div>set([&#x27;C:\\\\Users\\\\hd\\\\PycharmProjects\\\\untitled\\\\web2py\\\\applications\\\\darkcloud1\\\\&#x27;, &#x27;C:\\\\Users\\\\hd\\\\PycharmProjects\\\\untitled\\\\web2py\\\\applications\\\\admin\\\\&#x27;, &#x27;C:\\\\Users\\\\hd\\\\PycharmProjects\\\\untitled\\\\web2py\\\\applications\\\\welcome\\\\&#x27;])</div></td></tr><tr><td style="font-weight:bold;vertical-align:top;">applications_parent</td><td style="vertical-align:top;">:</td><td><div>C:\\Users\\hd\\PycharmProjects\\untitled\\web2py</div></td></tr><tr><td style="font-weight:bold;vertical-align:top;">cmd_args</td><td style="vertical-align:top;">:</td><td><div><table></table></div></td></tr><tr><td style="font-weight:bold;vertical-align:top;">cmd_options</td><td style="vertical-align:top;">:</td><td><div>&lt;Values at 0x6f50e08: {&#x27;verbose&#x27;: False, &#x27;ip&#x27;: &#x27;127.0.0.1&#x27;, &#x27;debuglevel&#x27;: 30, &#x27;with_scheduler&#x27;: False, &#x27;shutdown_timeout&#x27;: 5, &#x27;taskbar&#x27;: False, &#x27;with_coverage&#x27;: False, &#x27;pid_filename&#x27;: &#x27;httpserver.pid&#x27;, &#x27;maxthreads&#x27;: None, &#x27;softcron&#x27;: False, &#x27;server_name&#x27;: &#x27;tasneem&#x27;, &#x27;bpython&#x27;: False, &#x27;nogui&#x27;: False, &#x27;port&#x27;: 8000, &#x27;print_errors&#x27;: False, &#x27;extcron&#x27;: False, &#x27;runcron&#x27;: False, &#x27;run_system_tests&#x27;: False, &#x27;test&#x27;: None, &#x27;folder&#x27;: &#x27;C:\\\\Users\\\\hd\\\\PycharmProjects\\\\untitled\\\\web2py&#x27;, &#x27;config&#x27;: &#x27;&#x27;, &#x27;minthreads&#x27;: None, &#x27;shell&#x27;: None, &#x27;run&#x27;: &#x27;&#x27;, &#x27;log_filename&#x27;: &#x27;httpserver.log&#x27;, &#x27;profiler_dir&#x27;: None, &#x27;args&#x27;: [&#x27;&#x27;], &#x27;socket_timeout&#x27;: 5, &#x27;ssl_ca_certificate&#x27;: None, &#x27;scheduler&#x27;: None, &#x27;interfaces&#x27;: None, &#x27;ssl_private_key&#x27;: &#x27;&#x27;, &#x27;gae&#x27;: None, &#x27;password&#x27;: &#x27;******&#x27;, &#x27;request_queue_size&#x27;: 5, &#x27;ssl_certificate&#x27;: &#x27;&#x27;, &#x27;cronjob&#x27;: False, &#x27;numthreads&#x27;: None, &#x27;quiet&#x27;: False, &#x27;import_models&#x27;: False, &#x27;timeout&#x27;: 10, &#x27;plain&#x27;: False, &#x27;nobanner&#x27;: False}&gt;</div></td></tr><tr><td style="font-weight:bold;vertical-align:top;">db_sessions</td><td style="vertical-align:top;">:</td><td><div>set([])</div></td></tr><tr><td style="font-weight:bold;vertical-align:top;">debugging</td><td style="vertical-align:top;">:</td><td><div>False</div></td></tr><tr><td style="font-weight:bold;vertical-align:top;">gluon_parent</td><td style="vertical-align:top;">:</td><td><div>C:\\Users\\hd\\PycharmProjects\\untitled\\web2py</div></td></tr><tr><td style="font-weight:bold;vertical-align:top;">http_accept</td><td style="vertical-align:top;">:</td><td><div>text/html, application/xhtml+xml, image/jxr, */*</div></td></tr><tr><td style="font-weight:bold;vertical-align:top;">http_accept_encoding</td><td style="vertical-align:top;">:</td><td><div>gzip, deflate</div></td></tr><tr><td style="font-weight:bold;vertical-align:top;">http_accept_language</td><td style="vertical-align:top;">:</td><td><div>en-US</div></td></tr><tr><td style="font-weight:bold;vertical-align:top;">http_connection</td><td style="vertical-align:top;">:</td><td><div>Keep-Alive</div></td></tr><tr><td style="font-weight:bold;vertical-align:top;">http_cookie</td><td style="vertical-align:top;">:</td><td><div>session_id_welcome=127.0.0.1-ab6ea133-1347-4ade-94bf-d558af51c690; session_id_admin=127.0.0.1-bcf2fbd0-ee5b-49d8-9a49-31bfcb1c26e0; session_id_darkcloud1=127.0.0.1-7eecb705-f1a9-426f-ae22-88e750fb5cfa</div></td></tr><tr><td style="font-weight:bold;vertical-align:top;">http_host</td><td style="vertical-align:top;">:</td><td><div>127.0.0.1:8000</div></td></tr><tr><td style="font-weight:bold;vertical-align:top;">http_user_agent</td><td style="vertical-align:top;">:</td><td><div>Mozilla/5.0 (Windows NT 10.0; Win64; x64) AppleWebKit/537.36 (KHTML, like Gecko) Chrome/58.0.3029.110 Safari/537.36 Edge/16.16299</div></td></tr><tr><td style="font-weight:bold;vertical-align:top;">is_jython</td><td style="vertical-align:top;">:</td><td><div>False</div></td></tr><tr><td style="font-weight:bold;vertical-align:top;">is_py2</td><td style="vertical-align:top;">:</td><td><div>True</div></td></tr><tr><td style="font-weight:bold;vertical-align:top;">is_pypy</td><td style="vertical-align:top;">:</td><td><div>False</div></td></tr><tr><td style="font-weight:bold;vertical-align:top;">is_source</td><td style="vertical-align:top;">:</td><td><div>True</div></td></tr><tr><td style="font-weight:bold;vertical-align:top;">local_hosts</td><td style="vertical-align:top;">:</td><td><div><table><tr><td><div>192.168.153.1</div></td></tr><tr><td><div>fe80::5cf7:579:cc61:1cf0%22</div></td></tr><tr><td><div>fe80::41b4:b3f5:1301:13c2%10</div></td></tr><tr><td><div>::ffff:127.0.0.1</div></td></tr><tr><td><div>::1</div></td></tr><tr><td><div>192.168.188.1</div></td></tr><tr><td><div>192.168.50.1</div></td></tr><tr><td><div>fe80::4807:4abc:a288:fdb3%2</div></td></tr><tr><td><div>tasneem</div></td></tr><tr><td><div>fe80::ec74:5042:7a11:bddb%9</div></td></tr><tr><td><div>192.168.108.1</div></td></tr><tr><td><div>fe80::70c1:6b8f:528a:de5b%4</div></td></tr><tr><td><div>127.0.0.1</div></td></tr><tr><td><div>192.168.56.1</div></td></tr></table></div></td></tr><tr><td style="font-weight:bold;vertical-align:top;">path_info</td><td style="vertical-align:top;">:</td><td><div>/darkcloud1/default/subscriber/sensors</div></td></tr><tr><td style="font-weight:bold;vertical-align:top;">query_string</td><td style="vertical-align:top;">:</td><td><div></div></td></tr><tr><td style="font-weight:bold;vertical-align:top;">remote_addr</td><td style="vertical-align:top;">:</td><td><div>127.0.0.1</div></td></tr><tr><td style="font-weight:bold;vertical-align:top;">remote_port</td><td style="vertical-align:top;">:</td><td><div>50682</div></td></tr><tr><td style="font-weight:bold;vertical-align:top;">request_method</td><td style="vertical-align:top;">:</td><td><div>GET</div></td></tr><tr><td style="font-weight:bold;vertical-align:top;">request_uri</td><td style="vertical-align:top;">:</td><td><div>/darkcloud1/default/subscriber/sensors</div></td></tr><tr><td style="font-weight:bold;vertical-align:top;">script_name</td><td style="vertical-align:top;">:</td><td><div></div></td></tr><tr><td style="font-weight:bold;vertical-align:top;">server_name</td><td style="vertical-align:top;">:</td><td><div>tasneem</div></td></tr><tr><td style="font-weight:bold;vertical-align:top;">server_port</td><td style="vertical-align:top;">:</td><td><div>8000</div></td></tr><tr><td style="font-weight:bold;vertical-align:top;">server_protocol</td><td style="vertical-align:top;">:</td><td><div>HTTP/1.1</div></td></tr><tr><td style="font-weight:bold;vertical-align:top;">server_software</td><td style="vertical-align:top;">:</td><td><div>Rocket 1.2.6</div></td></tr><tr><td style="font-weight:bold;vertical-align:top;">web2py_path</td><td style="vertical-align:top;">:</td><td><div>C:\\Users\\hd\\PycharmProjects\\untitled\\web2py</div></td></tr><tr><td style="font-weight:bold;vertical-align:top;">web2py_version</td><td style="vertical-align:top;">:</td><td><div>2.16.1-stable+timestamp.2017.11.14.05.54.25</div></td></tr><tr><td style="font-weight:bold;vertical-align:top;">wsgi.errors</td><td style="vertical-align:top;">:</td><td><div>&lt;open file &#x27;&lt;stderr&gt;&#x27;, mode &#x27;w&#x27; at 0x00000000056BB150&gt;</div></td></tr><tr><td style="font-weight:bold;vertical-align:top;">wsgi.file_wrapper</td><td style="vertical-align:top;">:</td><td><div>&lt;class wsgiref.util.FileWrapper at 0x0000000006F0F348&gt;</div></td></tr><tr><td style="font-weight:bold;vertical-align:top;">wsgi.input</td><td style="vertical-align:top;">:</td><td><div>&lt;socket._fileobject object at 0x000000000D326750&gt;</div></td></tr><tr><td style="font-weight:bold;vertical-align:top;">wsgi.multiprocess</td><td style="vertical-align:top;">:</td><td><div>False</div></td></tr><tr><td style="font-weight:bold;vertical-align:top;">wsgi.multithread</td><td style="vertical-align:top;">:</td><td><div>True</div></td></tr><tr><td style="font-weight:bold;vertical-align:top;">wsgi.run_once</td><td style="vertical-align:top;">:</td><td><div>False</div></td></tr><tr><td style="font-weight:bold;vertical-align:top;">wsgi.url_scheme</td><td style="vertical-align:top;">:</td><td><div>http</div></td></tr><tr><td style="font-weight:bold;vertical-align:top;">wsgi.version</td><td style="vertical-align:top;">:</td><td><div><table><tr><td><div>1</div></td></tr><tr><td><div>0</div></td></tr></table></div></td></tr><tr><td style="font-weight:bold;vertical-align:top;">wsgi_errors</td><td style="vertical-align:top;">:</td><td><div>&lt;open file &#x27;&lt;stderr&gt;&#x27;, mode &#x27;w&#x27; at 0x00000000056BB150&gt;</div></td></tr><tr><td style="font-weight:bold;vertical-align:top;">wsgi_file_wrapper</td><td style="vertical-align:top;">:</td><td><div>&lt;class wsgiref.util.FileWrapper at 0x0000000006F0F348&gt;</div></td></tr><tr><td style="font-weight:bold;vertical-align:top;">wsgi_input</td><td style="vertical-align:top;">:</td><td><div>&lt;socket._fileobject object at 0x000000000D326750&gt;</div></td></tr><tr><td style="font-weight:bold;vertical-align:top;">wsgi_multiprocess</td><td style="vertical-align:top;">:</td><td><div>False</div></td></tr><tr><td style="font-weight:bold;vertical-align:top;">wsgi_multithread</td><td style="vertical-align:top;">:</td><td><div>True</div></td></tr><tr><td style="font-weight:bold;vertical-align:top;">wsgi_run_once</td><td style="vertical-align:top;">:</td><td><div>False</div></td></tr><tr><td style="font-weight:bold;vertical-align:top;">wsgi_url_scheme</td><td style="vertical-align:top;">:</td><td><div>http</div></td></tr><tr><td style="font-weight:bold;vertical-align:top;">wsgi_version</td><td style="vertical-align:top;">:</td><td><div><table><tr><td><div>1</div></td></tr><tr><td><div>0</div></td></tr></table></div></td></tr></table></div></td></tr><tr><td style="font-weight:bold;vertical-align:top;">extension</td><td style="vertical-align:top;">:</td><td><div>html</div></td></tr><tr><td style="font-weight:bold;vertical-align:top;">folder</td><td style="vertical-align:top;">:</td><td><div>C:\\Users\\hd\\PycharmProjects\\untitled\\web2py\\applications\\darkcloud1\\</div></td></tr><tr><td style="font-weight:bold;vertical-align:top;">function</td><td style="vertical-align:top;">:</td><td><div>subscriber</div></td></tr><tr><td style="font-weight:bold;vertical-align:top;">global_settings</td><td style="vertical-align:top;">:</td><td><div><table><tr><td style="font-weight:bold;vertical-align:top;">app_folders</td><td style="vertical-align:top;">:</td><td><div>set([&#x27;C:\\\\Users\\\\hd\\\\PycharmProjects\\\\untitled\\\\web2py\\\\applications\\\\darkcloud1\\\\&#x27;, &#x27;C:\\\\Users\\\\hd\\\\PycharmProjects\\\\untitled\\\\web2py\\\\applications\\\\admin\\\\&#x27;, &#x27;C:\\\\Users\\\\hd\\\\PycharmProjects\\\\untitled\\\\web2py\\\\applications\\\\welcome\\\\&#x27;])</div></td></tr><tr><td style="font-weight:bold;vertical-align:top;">applications_parent</td><td style="vertical-align:top;">:</td><td><div>C:\\Users\\hd\\PycharmProjects\\untitled\\web2py</div></td></tr><tr><td style="font-weight:bold;vertical-align:top;">cmd_args</td><td style="vertical-align:top;">:</td><td><div><table></table></div></td></tr><tr><td style="font-weight:bold;vertical-align:top;">cmd_options</td><td style="vertical-align:top;">:</td><td><div>&lt;Values at 0x6f50e08: {&#x27;verbose&#x27;: False, &#x27;ip&#x27;: &#x27;127.0.0.1&#x27;, &#x27;debuglevel&#x27;: 30, &#x27;with_scheduler&#x27;: False, &#x27;shutdown_timeout&#x27;: 5, &#x27;taskbar&#x27;: False, &#x27;with_coverage&#x27;: False, &#x27;pid_filename&#x27;: &#x27;httpserver.pid&#x27;, &#x27;maxthreads&#x27;: None, &#x27;softcron&#x27;: False, &#x27;server_name&#x27;: &#x27;tasneem&#x27;, &#x27;bpython&#x27;: False, &#x27;nogui&#x27;: False, &#x27;port&#x27;: 8000, &#x27;print_errors&#x27;: False, &#x27;extcron&#x27;: False, &#x27;runcron&#x27;: False, &#x27;run_system_tests&#x27;: False, &#x27;test&#x27;: None, &#x27;folder&#x27;: &#x27;C:\\\\Users\\\\hd\\\\PycharmProjects\\\\untitled\\\\web2py&#x27;, &#x27;config&#x27;: &#x27;&#x27;, &#x27;minthreads&#x27;: None, &#x27;shell&#x27;: None, &#x27;run&#x27;: &#x27;&#x27;, &#x27;log_filename&#x27;: &#x27;httpserver.log&#x27;, &#x27;profiler_dir&#x27;: None, &#x27;args&#x27;: [&#x27;&#x27;], &#x27;socket_timeout&#x27;: 5, &#x27;ssl_ca_certificate&#x27;: None, &#x27;scheduler&#x27;: None, &#x27;interfaces&#x27;: None, &#x27;ssl_private_key&#x27;: &#x27;&#x27;, &#x27;gae&#x27;: None, &#x27;password&#x27;: &#x27;******&#x27;, &#x27;request_queue_size&#x27;: 5, &#x27;ssl_certificate&#x27;: &#x27;&#x27;, &#x27;cronjob&#x27;: False, &#x27;numthreads&#x27;: None, &#x27;quiet&#x27;: False, &#x27;import_models&#x27;: False, &#x27;timeout&#x27;: 10, &#x27;plain&#x27;: False, &#x27;nobanner&#x27;: False}&gt;</div></td></tr><tr><td style="font-weight:bold;vertical-align:top;">db_sessions</td><td style="vertical-align:top;">:</td><td><div>set([])</div></td></tr><tr><td style="font-weight:bold;vertical-align:top;">debugging</td><td style="vertical-align:top;">:</td><td><div>False</div></td></tr><tr><td style="font-weight:bold;vertical-align:top;">gluon_parent</td><td style="vertical-align:top;">:</td><td><div>C:\\Users\\hd\\PycharmProjects\\untitled\\web2py</div></td></tr><tr><td style="font-weight:bold;vertical-align:top;">is_jython</td><td style="vertical-align:top;">:</td><td><div>False</div></td></tr><tr><td style="font-weight:bold;vertical-align:top;">is_py2</td><td style="vertical-align:top;">:</td><td><div>True</div></td></tr><tr><td style="font-weight:bold;vertical-align:top;">is_pypy</td><td style="vertical-align:top;">:</td><td><div>False</div></td></tr><tr><td style="font-weight:bold;vertical-align:top;">is_source</td><td style="vertical-align:top;">:</td><td><div>True</div></td></tr><tr><td style="font-weight:bold;vertical-align:top;">local_hosts</td><td style="vertical-align:top;">:</td><td><div><table><tr><td><div>192.168.153.1</div></td></tr><tr><td><div>fe80::5cf7:579:cc61:1cf0%22</div></td></tr><tr><td><div>fe80::41b4:b3f5:1301:13c2%10</div></td></tr><tr><td><div>::ffff:127.0.0.1</div></td></tr><tr><td><div>::1</div></td></tr><tr><td><div>192.168.188.1</div></td></tr><tr><td><div>192.168.50.1</div></td></tr><tr><td><div>fe80::4807:4abc:a288:fdb3%2</div></td></tr><tr><td><div>tasneem</div></td></tr><tr><td><div>fe80::ec74:5042:7a11:bddb%9</div></td></tr><tr><td><div>192.168.108.1</div></td></tr><tr><td><div>fe80::70c1:6b8f:528a:de5b%4</div></td></tr><tr><td><div>127.0.0.1</div></td></tr><tr><td><div>192.168.56.1</div></td></tr></table></div></td></tr><tr><td style="font-weight:bold;vertical-align:top;">web2py_version</td><td style="vertical-align:top;">:</td><td><div>2.16.1-stable+timestamp.2017.11.14.05.54.25</div></td></tr></table></div></td></tr><tr><td style="font-weight:bold;vertical-align:top;">is_https</td><td style="vertical-align:top;">:</td><td><div>False</div></td></tr><tr><td style="font-weight:bold;vertical-align:top;">is_local</td><td style="vertical-align:top;">:</td><td><div>True</div></td></tr><tr><td style="font-weight:bold;vertical-align:top;">is_restful</td><td style="vertical-align:top;">:</td><td><div>False</div></td></tr><tr><td style="font-weight:bold;vertical-align:top;">is_scheduler</td><td style="vertical-align:top;">:</td><td><div>False</div></td></tr><tr><td style="font-weight:bold;vertical-align:top;">is_shell</td><td style="vertical-align:top;">:</td><td><div>False</div></td></tr><tr><td style="font-weight:bold;vertical-align:top;">now</td><td style="vertical-align:top;">:</td><td><div>datetime.datetime(2018, 4, 23, 16, 23, 27, 666000)</div></td></tr><tr><td style="font-weight:bold;vertical-align:top;">raw_args</td><td style="vertical-align:top;">:</td><td><div>sensors</div></td></tr><tr><td style="font-weight:bold;vertical-align:top;">raw_extension</td><td style="vertical-align:top;">:</td><td><div>None</div></td></tr><tr><td style="font-weight:bold;vertical-align:top;">url</td><td style="vertical-align:top;">:</td><td><div>/darkcloud1/default/subscriber/sensors</div></td></tr><tr><td style="font-weight:bold;vertical-align:top;">utcnow</td><td style="vertical-align:top;">:</td><td><div>datetime.datetime(2018, 4, 23, 14, 23, 27, 666000)</div></td></tr><tr><td style="font-weight:bold;vertical-align:top;">wsgi</td><td style="vertical-align:top;">:</td><td><div>&lt;gluon.main.LazyWSGI object at 0x000000000E7471D0&gt;</div></td></tr></table></div>'
tRp64
sS'frames'
p65
(lp66
(dp67
S'file'
p68
S'C:\\Users\\hd\\PycharmProjects\\untitled\\web2py\\gluon\\restricted.py'
p69
sS'dump'
p70
(dp71
S'environment'
p72
S"{'A': <class 'gluon.html.A'>, 'ANY_OF': <class 'gluon.validators.ANY_OF'>, 'ASSIGNJS': <function ASSIGNJS>, 'AppConfig': <function AppConfig>, 'Auth': <class 'gluon.tools.Auth'>, 'B': <class 'gluon.html.B'>, 'BEAUTIFY': <class 'gluon.html.BEAUTIFY'>, 'BODY': <class 'gluon.html.BODY'>, 'BR': <class 'gluon.html.BR'>, 'BUTTON': <class 'gluon.html.BUTTON'>, ...}"
p73
sS'ccode'
p74
S'<code object <module> at 000000000D32A430, file ...py\\applications\\darkcloud1\\models\\db.py", line 7>'
p75
ssS'lnum'
p76
I219
sS'lines'
p77
(dp78
I214
S'    if environment is None:'
p79
sI215
S'        environment = {}'
p80
sI216
S"    environment['__file__'] = layer"
p81
sI217
S"    environment['__name__'] = '__restricted__'"
p82
sI218
S'    try:'
p83
sI219
S'        exec(ccode, environment)'
p84
sI220
S'    except HTTP:'
p85
sI221
S'        raise'
p86
sI222
S'    except RestrictedError:'
p87
sI223
S'        # do not encapsulate (obfuscate) the original RestrictedError'
p88
ssS'call'
p89
S'(ccode=<code object <module> at 000000000D32A430, file ...py\\applications\\darkcloud1\\models\\db.py", line 7>, environment={\'A\': <class \'gluon.html.A\'>, \'ANY_OF\': <class \'gluon.validators.ANY_OF\'>, \'ASSIGNJS\': <function ASSIGNJS>, \'AppConfig\': <function AppConfig>, \'Auth\': <class \'gluon.tools.Auth\'>, \'B\': <class \'gluon.html.B\'>, \'BEAUTIFY\': <class \'gluon.html.BEAUTIFY\'>, \'BODY\': <class \'gluon.html.BODY\'>, \'BR\': <class \'gluon.html.BR\'>, \'BUTTON\': <class \'gluon.html.BUTTON\'>, ...}, layer=r\'C:\\Users\\hd\\PycharmProjects\\untitled\\web2py\\applications\\darkcloud1\\models\\db.py\', scode=<code object <module> at 000000000D32A430, file ...py\\applications\\darkcloud1\\models\\db.py", line 7>)'
p90
sS'func'
p91
S'restricted'
p92
sa(dp93
g68
S'C:\\Users\\hd\\PycharmProjects\\untitled\\web2py\\applications\\darkcloud1\\models\\db.py'
p94
sg70
(dp95
S'primarykey'
p96
S'undefined'
p97
ssg76
I193
sg77
(dp98
I192
S"    Field('enrolled_flag', 'boolean',default='False'),"
p99
sI193
S"    primarykey=['id']"
p100
sI194
S''
sI195
S')'
sI196
S''
sI197
S''
sI188
S"    Field('id', length=255,notnull = True),"
p101
sI189
S"   Field('ip', notnull = True,requires=IS_NOT_EMPTY()),"
p102
sI190
S"   Field('owner_ID',db.users.email, notnull = True,requires=IS_NOT_EMPTY()),"
p103
sI191
S"    Field('enrollement_timestamp', 'datetime',requires=(IS_DATE('%y-%m-%d'))),"
p104
ssg89
S'()'
p105
sg91
S'<module>'
p106
sa(dp107
g68
S'C:\\Users\\hd\\PycharmProjects\\untitled\\web2py\\gluon\\packages\\dal\\pydal\\base.py'
p108
sg70
(dp109
S'fields'
p110
S'(<pydal.objects.Field object>, <pydal.objects.Field object>, <pydal.objects.Field object>, <pydal.objects.Field object>, <pydal.objects.Field object>)'
p111
sS'self'
p112
S'<DAL uri="mysql:******@localhost/darkcloud">'
p113
sS'args'
p114
S"{'primarykey': ['id']}"
p115
sS'tablename'
p116
S"'sensors'"
p117
sS'table'
p118
g97
sS'self.lazy_define_table'
p119
S'<bound method DAL.lazy_define_table of <DAL uri="mysql:******@localhost/darkcloud">>'
p120
ssg76
I586
sg77
(dp121
I581
S'                                  (tablename, invalid_args))'
p122
sI582
S'        if self._lazy_tables and tablename not in self._LAZY_TABLES:'
p123
sI583
S'            self._LAZY_TABLES[tablename] = (tablename, fields, args)'
p124
sI584
S'            table = None'
p125
sI585
S'        else:'
p126
sI586
S'            table = self.lazy_define_table(tablename, *fields, **args)'
p127
sI587
S'        if tablename not in self.tables:'
p128
sI588
S'            self.tables.append(tablename)'
p129
sI589
S'        return table'
p130
sI590
S''
ssg89
S'(self=<DAL uri="mysql:******@localhost/darkcloud">, tablename=\'sensors\', *fields=(<pydal.objects.Field object>, <pydal.objects.Field object>, <pydal.objects.Field object>, <pydal.objects.Field object>, <pydal.objects.Field object>), **args={\'primarykey\': [\'id\']})'
p131
sg91
S'define_table'
p132
sa(dp133
g68
S'C:\\Users\\hd\\PycharmProjects\\untitled\\web2py\\gluon\\packages\\dal\\pydal\\base.py'
p134
sg70
(dp135
S'polymodel'
p136
S'None'
p137
ssg76
I620
sg77
(dp138
I615
S'            try:'
p139
sI616
S'                GLOBAL_LOCKER.acquire()'
p140
sI617
S'                self._adapter.create_table('
p141
sI618
S'                    table, migrate=migrate,'
p142
sI619
S'                    fake_migrate=fake_migrate,'
p143
sI620
S'                    polymodel=polymodel)'
p144
sI621
S'            finally:'
p145
sI622
S'                GLOBAL_LOCKER.release()'
p146
sI623
S'        else:'
p147
sI624
S'            table._dbt = None'
p148
ssg89
S'(self=<DAL uri="mysql:******@localhost/darkcloud">, tablename=\'sensors\', *fields=(<pydal.objects.Field object>, <pydal.objects.Field object>, <pydal.objects.Field object>, <pydal.objects.Field object>, <pydal.objects.Field object>), **args={\'primarykey\': [\'id\']})'
p149
sg91
S'lazy_define_table'
p150
sa(dp151
g68
S'C:\\Users\\hd\\PycharmProjects\\untitled\\web2py\\gluon\\packages\\dal\\pydal\\adapters\\base.py'
p152
sg70
(dp153
S'self'
p154
S'<pydal.adapters.mysql.MySQL object>'
p155
sS'args'
p156
S'(<Table sensors (id, ip, owner_ID, enrollement_timestamp, enrolled_flag)>,)'
p157
sS'self.migrator'
p158
S'<pydal.migrator.Migrator object>'
p159
sS'self.migrator.create_table'
p160
S'<bound method Migrator.create_table of <pydal.migrator.Migrator object>>'
p161
sS'kwargs'
p162
S"{'fake_migrate': False, 'migrate': True, 'polymodel': None}"
p163
ssg76
I797
sg77
(dp164
I800
S'        super(SQLAdapter, self)._drop_table_cleanup(table)'
p165
sI801
S'        if table._dbt:'
p166
sI792
S''
sI793
S'    def bulk_insert(self, table, items):'
p167
sI794
S'        return [self.insert(table, item) for item in items]'
p168
sI795
S''
sI796
S'    def create_table(self, *args, **kwargs):'
p169
sI797
S'        return self.migrator.create_table(*args, **kwargs)'
p170
sI798
S''
sI799
S'    def _drop_table_cleanup(self, table):'
p171
ssg89
S"(self=<pydal.adapters.mysql.MySQL object>, *args=(<Table sensors (id, ip, owner_ID, enrollement_timestamp, enrolled_flag)>,), **kwargs={'fake_migrate': False, 'migrate': True, 'polymodel': None})"
p172
sg91
S'create_table'
p173
sa(dp174
g68
S'C:\\Users\\hd\\PycharmProjects\\untitled\\web2py\\gluon\\packages\\dal\\pydal\\migrator.py'
p175
sg70
(dp176
S'fake_migrate'
p177
S'False'
p178
ssg76
I314
sg77
(dp179
I309
S'            if sql_fields != sql_fields_old:'
p180
sI310
S'                self.migrate_table('
p181
sI311
S'                    table,'
p182
sI312
S'                    sql_fields, sql_fields_old,'
p183
sI313
S'                    sql_fields_aux, None,'
p184
sI314
S'                    fake_migrate=fake_migrate'
p185
sI315
S'                    )'
p186
sI316
S'        return query'
p187
sI317
S''
sI318
S'    def _fix(self, item):'
p188
ssg89
S'(self=<pydal.migrator.Migrator object>, table=<Table sensors (id, ip, owner_ID, enrollement_timestamp, enrolled_flag)>, migrate=True, fake_migrate=False, polymodel=None)'
p189
sg91
g173
sa(dp190
g68
S'C:\\Users\\hd\\PycharmProjects\\untitled\\web2py\\gluon\\packages\\dal\\pydal\\migrator.py'
p191
sg70
(dp192
S'self'
p193
S'<pydal.migrator.Migrator object>'
p194
sS'self.adapter.execute'
p195
S'<bound method MySQL.wrap of <pydal.adapters.mysql.MySQL object>>'
p196
sS'self.adapter'
p197
S'<pydal.adapters.mysql.MySQL object>'
p198
sS'sub_query'
p199
S"'ALTER TABLE `sensors` ADD `enrollement_timestamp` DATETIME;'"
p200
ssg76
I447
sg77
(dp201
I448
S'                        # Caveat: mysql, oracle and firebird'
p202
sI449
S'                        # do not allow multiple alter table'
p203
sI450
S'                        # in one transaction so we must commit'
p204
sI451
S'                        # partial transactions and'
p205
sI442
S'                    if fake_migrate:'
p206
sI443
S'                        if db._adapter.commit_on_alter_table:'
p207
sI444
S'                            self.save_dbt(table, sql_fields_current)'
p208
sI445
S"                        self.log('faked!\\n', table)"
p209
sI446
S'                    else:'
p210
sI447
S'                        self.adapter.execute(sub_query)'
p211
ssg89
S"(self=<pydal.migrator.Migrator object>, table=<Table sensors (id, ip, owner_ID, enrollement_timestamp, enrolled_flag)>, sql_fields={'enrolled_flag': {'length': 512, 'notnull': False, 'raw_rname': 'enrolled_flag', 'rname': '`enrolled_flag`', 'sortable': 5, 'sql': 'CHAR(1)', 'type': 'boolean', 'unique': False}, 'enrollement_timestamp': {'length': 512, 'notnull': False, 'raw_rname': 'enrollement_timestamp', 'rname': '`enrollement_timestamp`', 'sortable': 4, 'sql': 'DATETIME', 'type': 'datetime', 'unique': False}, 'id': {'length': 255, 'notnull': True, 'raw_rname': 'id', 'rname': '`id`', 'sortable': 1, 'sql': 'VARCHAR(255) NOT NULL', 'type': 'string', 'unique': False}, 'ip': {'length': 512, 'notnull': True, 'raw_rname': 'ip', 'rname': '`ip`', 'sortable': 2, 'sql': 'VARCHAR(512) NOT NULL', 'type': 'string', 'unique': False}, 'owner_id': {'length': 512, 'notnull': True, 'raw_rname': 'owner_ID', 'rname': '`owner_ID`', 'sortable': 3, 'sql': 'VARCHAR(255), CONSTRAINT `FK_sensors_owner_ID__c...`) REFERENCES `users` (`email`) ON DELETE CASCADE', 'type': 'reference users.email', 'unique': False}}, sql_fields_old={'enrolled_flag': {'length': 512, 'notnull': False, 'raw_rname': 'enrolled_flag', 'rname': '`enrolled_flag`', 'sortable': 5, 'sql': 'CHAR(1)', 'type': 'boolean', 'unique': False}, 'enrollement_stamp': {'length': 512, 'notnull': False, 'raw_rname': 'enrollement_stamp', 'rname': '`enrollement_stamp`', 'sortable': 4, 'sql': 'DATETIME', 'type': 'datetime', 'unique': False}, 'id': {'length': 255, 'notnull': True, 'raw_rname': 'id', 'rname': '`id`', 'sortable': 1, 'sql': 'VARCHAR(255) NOT NULL', 'type': 'string', 'unique': False}, 'ip': {'length': 512, 'notnull': True, 'raw_rname': 'ip', 'rname': '`ip`', 'sortable': 2, 'sql': 'VARCHAR(512) NOT NULL', 'type': 'string', 'unique': False}, 'owner_id': {'length': 512, 'notnull': True, 'raw_rname': 'owner_ID', 'rname': '`owner_ID`', 'sortable': 3, 'sql': 'VARCHAR(255), CONSTRAINT `FK_sensors_owner_ID__c...`) REFERENCES `users` (`email`) ON DELETE CASCADE', 'type': 'reference users.email', 'unique': False}}, sql_fields_aux={'enrolled_flag': {'sql': 'CHAR(1)'}, 'enrollement_timestamp': {'sql': 'DATETIME'}, 'id': {'sql': 'VARCHAR(255) NOT NULL'}, 'ip': {'sql': 'VARCHAR(512) NOT NULL'}, 'owner_id': {'sql': 'VARCHAR(255), CONSTRAINT `FK_sensors_owner_ID__c...`) REFERENCES `users` (`email`) ON DELETE CASCADE'}}, logfile=None, fake_migrate=False)"
p212
sg91
S'migrate_table'
p213
sa(dp214
g68
S'C:\\Users\\hd\\PycharmProjects\\untitled\\web2py\\gluon\\packages\\dal\\pydal\\adapters\\__init__.py'
p215
sg70
(dp216
S'kwargs'
p217
g21
sS'args'
p218
S"(<pydal.adapters.mysql.MySQL object>, 'ALTER TABLE `sensors` ADD `enrollement_timestamp` DATETIME;')"
p219
sS'f'
S'<function execute>'
p220
ssg76
I67
sg77
(dp221
I64
S'            if len(args) > 1:'
p222
sI65
S'                raise ValueError(args[1])'
p223
sI66
S"            raise RuntimeError('no connection available')"
p224
sI67
S'        return f(*args, **kwargs)'
p225
sI68
S'    return wrap'
p226
sI69
S''
sI70
S''
sI71
S'from .base import SQLAdapter, NoSQLAdapter'
p227
sI62
S'    def wrap(*args, **kwargs):'
p228
sI63
S'        if not args[0].connection:'
p229
ssg89
S"(*args=(<pydal.adapters.mysql.MySQL object>, 'ALTER TABLE `sensors` ADD `enrollement_timestamp` DATETIME;'), **kwargs={})"
p230
sg91
S'wrap'
p231
sa(dp232
g68
S'C:\\Users\\hd\\PycharmProjects\\untitled\\web2py\\gluon\\packages\\dal\\pydal\\adapters\\base.py'
p233
sg70
(dp234
S'rv'
p235
g97
sS'self'
p236
S'<pydal.adapters.mysql.MySQL object>'
p237
sS'args'
p238
S"('ALTER TABLE `sensors` ADD `enrollement_timestamp` DATETIME;',)"
p239
sS'self.cursor'
p240
S'<gluon.contrib.pymysql.cursors.Cursor object>'
p241
sS'command'
p242
S"'ALTER TABLE `sensors` ADD `enrollement_timestamp` DATETIME;'"
p243
sS'self.cursor.execute'
p244
S'<bound method Cursor.execute of <gluon.contrib.pymysql.cursors.Cursor object>>'
p245
sS'kwargs'
p246
g21
ssg76
I412
sg77
(dp247
I416
S''
sI407
S'    def execute(self, *args, **kwargs):'
p248
sI408
S'        command = self.filter_sql_command(args[0])'
p249
sI409
S'        handlers = self._build_handlers_for_execution()'
p250
sI410
S'        for handler in handlers:'
p251
sI411
S'            handler.before_execute(command)'
p252
sI412
S'        rv = self.cursor.execute(command, *args[1:], **kwargs)'
p253
sI413
S'        for handler in handlers:'
p254
sI414
S'            handler.after_execute(command)'
p255
sI415
S'        return rv'
p256
ssg89
S"(self=<pydal.adapters.mysql.MySQL object>, *args=('ALTER TABLE `sensors` ADD `enrollement_timestamp` DATETIME;',), **kwargs={})"
p257
sg91
S'execute'
p258
sa(dp259
g68
S'C:\\Users\\hd\\PycharmProjects\\untitled\\web2py\\gluon\\contrib\\pymysql\\cursors.py'
p260
sg70
(dp261
S'query'
p262
S"'ALTER TABLE `sensors` ADD `enrollement_timestamp` DATETIME;'"
p263
sS'self'
p264
S'<gluon.contrib.pymysql.cursors.Cursor object>'
p265
sS'result'
p266
g97
sS'self._query'
p267
S'<bound method Cursor._query of <gluon.contrib.pymysql.cursors.Cursor object>>'
p268
ssg76
I166
sg77
(dp269
I161
S'        while self.nextset():'
p270
sI162
S'            pass'
p271
sI163
S''
sI164
S'        query = self.mogrify(query, args)'
p272
sI165
S''
sI166
S'        result = self._query(query)'
p273
sI167
S'        self._executed = query'
p274
sI168
S'        return result'
p275
sI169
S''
sI170
S'    def executemany(self, query, args):'
p276
ssg89
S"(self=<gluon.contrib.pymysql.cursors.Cursor object>, query='ALTER TABLE `sensors` ADD `enrollement_timestamp` DATETIME;', args=None)"
p277
sg91
g258
sa(dp278
g68
S'C:\\Users\\hd\\PycharmProjects\\untitled\\web2py\\gluon\\contrib\\pymysql\\cursors.py'
p279
sg70
(dp280
S'q'
S"'ALTER TABLE `sensors` ADD `enrollement_timestamp` DATETIME;'"
p281
sS'conn.query'
p282
S'<bound method Connection.query of <gluon.contrib.pymysql.connections.Connection object>>'
p283
sS'conn'
p284
S'<gluon.contrib.pymysql.connections.Connection object>'
p285
ssg76
I322
sg77
(dp286
I320
S'        conn = self._get_db()'
p287
sI321
S'        self._last_executed = q'
p288
sI322
S'        conn.query(q)'
p289
sI323
S'        self._do_get_result()'
p290
sI324
S'        return self.rowcount'
p291
sI325
S''
sI326
S'    def _do_get_result(self):'
p292
sI317
S'        self.rownumber = r'
p293
sI318
S''
sI319
S'    def _query(self, q):'
p294
ssg89
S"(self=<gluon.contrib.pymysql.cursors.Cursor object>, q='ALTER TABLE `sensors` ADD `enrollement_timestamp` DATETIME;')"
p295
sg91
S'_query'
p296
sa(dp297
g68
S'C:\\Users\\hd\\PycharmProjects\\untitled\\web2py\\gluon\\contrib\\pymysql\\connections.py'
p298
sg70
(dp299
S'self._read_query_result'
p300
S'<bound method Connection._read_query_result of <...n.contrib.pymysql.connections.Connection object>>'
p301
sS'self'
p302
S'<gluon.contrib.pymysql.connections.Connection object>'
p303
sS'unbuffered'
p304
g178
sS'self._affected_rows'
p305
S'1'
ssg76
I835
sg77
(dp306
I832
S'            else:'
p307
sI833
S"                sql = sql.encode(self.encoding, 'surrogateescape')"
p308
sI834
S'        self._execute_command(COMMAND.COM_QUERY, sql)'
p309
sI835
S'        self._affected_rows = self._read_query_result(unbuffered=unbuffered)'
p310
sI836
S'        return self._affected_rows'
p311
sI837
S''
sI838
S'    def next_result(self, unbuffered=False):'
p312
sI839
S'        self._affected_rows = self._read_query_result(unbuffered=unbuffered)'
p313
sI830
S'            if PY2:'
p314
sI831
S'                sql = sql.encode(self.encoding)'
p315
ssg89
S"(self=<gluon.contrib.pymysql.connections.Connection object>, sql='ALTER TABLE `sensors` ADD `enrollement_timestamp` DATETIME;', unbuffered=False)"
p316
sg91
S'query'
p317
sa(dp318
g68
S'C:\\Users\\hd\\PycharmProjects\\untitled\\web2py\\gluon\\contrib\\pymysql\\connections.py'
p319
sg70
(dp320
S'result.read'
p321
S'<bound method MySQLResult.read of <gluon.contrib.pymysql.connections.MySQLResult object>>'
p322
sS'result'
p323
S'<gluon.contrib.pymysql.connections.MySQLResult object>'
p324
ssg76
I1019
sg77
(dp325
I1014
S'                result.unbuffered_active = False'
p326
sI1015
S'                result.connection = None'
p327
sI1016
S'                raise'
p328
sI1017
S'        else:'
p329
sI1018
S'            result = MySQLResult(self)'
p330
sI1019
S'            result.read()'
p331
sI1020
S'        self._result = result'
p332
sI1021
S'        if result.server_status is not None:'
p333
sI1022
S'            self.server_status = result.server_status'
p334
sI1023
S'        return result.affected_rows'
p335
ssg89
S'(self=<gluon.contrib.pymysql.connections.Connection object>, unbuffered=False)'
p336
sg91
S'_read_query_result'
p337
sa(dp338
g68
S'C:\\Users\\hd\\PycharmProjects\\untitled\\web2py\\gluon\\contrib\\pymysql\\connections.py'
p339
sg70
(dp340
S'first_packet'
p341
g97
sS'self'
p342
S'<gluon.contrib.pymysql.connections.MySQLResult object>'
p343
sS'self.connection'
p344
S'None'
p345
sS'self.connection._read_packet'
p346
g97
ssg76
I1302
sg77
(dp347
I1297
S'        if self.unbuffered_active:'
p348
sI1298
S'            self._finish_unbuffered_query()'
p349
sI1299
S''
sI1300
S'    def read(self):'
p350
sI1301
S'        try:'
p351
sI1302
S'            first_packet = self.connection._read_packet()'
p352
sI1303
S''
sI1304
S'            if first_packet.is_ok_packet():'
p353
sI1305
S'                self._read_ok_packet(first_packet)'
p354
sI1306
S'            elif first_packet.is_load_local_packet():'
p355
ssg89
S'(self=<gluon.contrib.pymysql.connections.MySQLResult object>)'
p356
sg91
S'read'
p357
sa(dp358
g68
S'C:\\Users\\hd\\PycharmProjects\\untitled\\web2py\\gluon\\contrib\\pymysql\\connections.py'
p359
sg70
(dp360
S'packet'
p361
S'<gluon.contrib.pymysql.connections.MysqlPacket object>'
p362
sS'packet.check_error'
p363
S'<bound method MysqlPacket.check_error of <gluon.contrib.pymysql.connections.MysqlPacket object>>'
p364
ssg76
I981
sg77
(dp365
I976
S'                continue'
p366
sI977
S'            if bytes_to_read < MAX_PACKET_LEN:'
p367
sI978
S'                break'
p368
sI979
S''
sI980
S'        packet = packet_type(buff, self.encoding)'
p369
sI981
S'        packet.check_error()'
p370
sI982
S'        return packet'
p371
sI983
S''
sI984
S'    def _read_bytes(self, num_bytes):'
p372
sI985
S'        self._sock.settimeout(self._read_timeout)'
p373
ssg89
S"(self=<gluon.contrib.pymysql.connections.Connection object>, packet_type=<class 'gluon.contrib.pymysql.connections.MysqlPacket'>)"
p374
sg91
S'_read_packet'
p375
sa(dp376
g68
S'C:\\Users\\hd\\PycharmProjects\\untitled\\web2py\\gluon\\contrib\\pymysql\\connections.py'
p377
sg70
(dp378
S'self._data'
p379
S'"\\xff$\\x04#42S21Duplicate column name \'enrollement_timestamp\'"'
p380
sS'self'
p381
S'<gluon.contrib.pymysql.connections.MysqlPacket object>'
p382
sS'global err'
p383
S"<module 'gluon.contrib.pymysql.err' from 'C:\\Use...s\\untitled\\web2py\\gluon\\contrib\\pymysql\\err.pyc'>"
p384
sS'err.raise_mysql_exception'
p385
S'<function raise_mysql_exception>'
p386
ssg76
I393
sg77
(dp387
I388
S'        if self.is_error_packet():'
p388
sI389
S'            self.rewind()'
p389
sI390
S'            self.advance(1)  # field_count == error (we already know that)'
p390
sI391
S'            errno = self.read_uint16()'
p391
sI392
S'            if DEBUG: print("errno =", errno)'
p392
sI393
S'            err.raise_mysql_exception(self._data)'
p393
sI394
S''
sI395
S'    def dump(self):'
p394
sI396
S'        dump_packet(self._data)'
p395
sI397
S''
ssg89
S'(self=<gluon.contrib.pymysql.connections.MysqlPacket object>)'
p396
sg91
S'check_error'
p397
sa(dp398
g68
S'C:\\Users\\hd\\PycharmProjects\\untitled\\web2py\\gluon\\contrib\\pymysql\\err.py'
p399
sg70
(dp400
S'errorclass'
p401
S"<class 'gluon.contrib.pymysql.err.InternalError'>"
p402
sS'errno'
p403
S'1060'
p404
sS'errval'
p405
S'u"Duplicate column name \'enrollement_timestamp\'"'
p406
ssg76
I107
sg77
(dp407
I98
S'def raise_mysql_exception(data):'
p408
sI99
S"    errno = struct.unpack('<h', data[1:3])[0]"
p409
sI100
S'    is_41 = data[3:4] == b"#"'
p410
sI101
S'    if is_41:'
p411
sI102
S'        # client protocol 4.1'
p412
sI103
S"        errval = data[9:].decode('utf-8', 'replace')"
p413
sI104
S'    else:'
p414
sI105
S"        errval = data[3:].decode('utf-8', 'replace')"
p415
sI106
S'    errorclass = error_map.get(errno, InternalError)'
p416
sI107
S'    raise errorclass(errno, errval)'
p417
ssg89
S'(data="\\xff$\\x04#42S21Duplicate column name \'enrollement_timestamp\'")'
p418
sg91
S'raise_mysql_exception'
p419
sasS'pyver'
p420
S'Python 2.7.13: C:\\python27-x64\\python.exe (prefix: C:\\python27-x64)'
p421
sS'session'
p422
g63
(S's\xa1\x06\x00\x00<div><table><tr><td style="font-weight:bold;vertical-align:top;">action</td><td style="vertical-align:top;">:</td><td><div>scripts</div></td></tr><tr><td style="font-weight:bold;vertical-align:top;">showtable</td><td style="vertical-align:top;">:</td><td><div>None</div></td></tr><tr><td style="font-weight:bold;vertical-align:top;">user</td><td style="vertical-align:top;">:</td><td><div><table><tr><td style="font-weight:bold;vertical-align:top;">License_count_endpoint</td><td style="vertical-align:top;">:</td><td><div>None</div></td></tr><tr><td style="font-weight:bold;vertical-align:top;">License_count_sensors</td><td style="vertical-align:top;">:</td><td><div>None</div></td></tr><tr><td style="font-weight:bold;vertical-align:top;">email</td><td style="vertical-align:top;">:</td><td><div>subscriber@subscriber.com</div></td></tr><tr><td style="font-weight:bold;vertical-align:top;">firstname</td><td style="vertical-align:top;">:</td><td><div>subscriber</div></td></tr><tr><td style="font-weight:bold;vertical-align:top;">lastname</td><td style="vertical-align:top;">:</td><td><div>subscriber</div></td></tr><tr><td style="font-weight:bold;vertical-align:top;">password</td><td style="vertical-align:top;">:</td><td><div>1</div></td></tr><tr><td style="font-weight:bold;vertical-align:top;">username</td><td style="vertical-align:top;">:</td><td><div>subscriber</div></td></tr><tr><td style="font-weight:bold;vertical-align:top;">usertype</td><td style="vertical-align:top;">:</td><td><div>2L</div></td></tr></table></div></td></tr><tr><td style="font-weight:bold;vertical-align:top;">vars</td><td style="vertical-align:top;">:</td><td><div><table></table></div></td></tr></table></div>'
tRp423
sS'etype'
p424
S"<class 'gluon.contrib.pymysql.err.InternalError'>"
p425
sS'date'
p426
S'Mon Apr 23 16:23:27 2018'
p427
sS'response'
p428
g63
(S's\x17\x1b\x00\x00<div><table><tr><td style="font-weight:bold;vertical-align:top;">body</td><td style="vertical-align:top;">:</td><td><div>&lt;cStringIO.StringO object at 0x000000000DC8B030&gt;</div></td></tr><tr><td style="font-weight:bold;vertical-align:top;">cookies</td><td style="vertical-align:top;">:</td><td><div><table><tr><td style="font-weight:bold;vertical-align:top;">session_id_darkcloud1</td><td style="vertical-align:top;">:</td><td><div>127.0.0.1-7eecb705-f1a9-426f-ae22-88e750fb5cfa<table><tr><td style="font-weight:bold;vertical-align:top;">comment</td><td style="vertical-align:top;">:</td><td><div></div></td></tr><tr><td style="font-weight:bold;vertical-align:top;">domain</td><td style="vertical-align:top;">:</td><td><div></div></td></tr><tr><td style="font-weight:bold;vertical-align:top;">expires</td><td style="vertical-align:top;">:</td><td><div></div></td></tr><tr><td style="font-weight:bold;vertical-align:top;">httponly</td><td style="vertical-align:top;">:</td><td><div></div></td></tr><tr><td style="font-weight:bold;vertical-align:top;">max-age</td><td style="vertical-align:top;">:</td><td><div></div></td></tr><tr><td style="font-weight:bold;vertical-align:top;">path</td><td style="vertical-align:top;">:</td><td><div>/</div></td></tr><tr><td style="font-weight:bold;vertical-align:top;">secure</td><td style="vertical-align:top;">:</td><td><div></div></td></tr><tr><td style="font-weight:bold;vertical-align:top;">version</td><td style="vertical-align:top;">:</td><td><div></div></td></tr></table></div></td></tr></table></div></td></tr><tr><td style="font-weight:bold;vertical-align:top;">delimiters</td><td style="vertical-align:top;">:</td><td><div><table><tr><td><div>{{</div></td></tr><tr><td><div>}}</div></td></tr></table></div></td></tr><tr><td style="font-weight:bold;vertical-align:top;">files</td><td style="vertical-align:top;">:</td><td><div><table></table></div></td></tr><tr><td style="font-weight:bold;vertical-align:top;">flash</td><td style="vertical-align:top;">:</td><td><div></div></td></tr><tr><td style="font-weight:bold;vertical-align:top;">form_label_separator</td><td style="vertical-align:top;">:</td><td><div></div></td></tr><tr><td style="font-weight:bold;vertical-align:top;">formstyle</td><td style="vertical-align:top;">:</td><td><div>bootstrap4_inline</div></td></tr><tr><td style="font-weight:bold;vertical-align:top;">generic_patterns</td><td style="vertical-align:top;">:</td><td><div><table><tr><td><div>*</div></td></tr></table></div></td></tr><tr><td style="font-weight:bold;vertical-align:top;">google_analytics_id</td><td style="vertical-align:top;">:</td><td><div>None</div></td></tr><tr><td style="font-weight:bold;vertical-align:top;">headers</td><td style="vertical-align:top;">:</td><td><div><table><tr><td style="font-weight:bold;vertical-align:top;">X-Powered-By</td><td style="vertical-align:top;">:</td><td><div>web2py</div></td></tr></table></div></td></tr><tr><td style="font-weight:bold;vertical-align:top;">menu</td><td style="vertical-align:top;">:</td><td><div><table></table></div></td></tr><tr><td style="font-weight:bold;vertical-align:top;">meta</td><td style="vertical-align:top;">:</td><td><div><table><tr><td style="font-weight:bold;vertical-align:top;">author</td><td style="vertical-align:top;">:</td><td><div>Your Name &lt;you@example.com&gt;</div></td></tr><tr><td style="font-weight:bold;vertical-align:top;">description</td><td style="vertical-align:top;">:</td><td><div>a cool new app</div></td></tr><tr><td style="font-weight:bold;vertical-align:top;">generator</td><td style="vertical-align:top;">:</td><td><div>Web2py Web Framework</div></td></tr><tr><td style="font-weight:bold;vertical-align:top;">keywords</td><td style="vertical-align:top;">:</td><td><div><table><tr><td><div>web2py</div></td></tr><tr><td><div>python</div></td></tr><tr><td><div>framework</div></td></tr></table></div></td></tr></table></div></td></tr><tr><td style="font-weight:bold;vertical-align:top;">models_to_run</td><td style="vertical-align:top;">:</td><td><div><table><tr><td><div>^\\w+\\.py$</div></td></tr><tr><td><div>^default/\\w+\\.py$</div></td></tr><tr><td><div>^default/subscriber/\\w+\\.py$</div></td></tr></table></div></td></tr><tr><td style="font-weight:bold;vertical-align:top;">postprocessing</td><td style="vertical-align:top;">:</td><td><div><table></table></div></td></tr><tr><td style="font-weight:bold;vertical-align:top;">session_client</td><td style="vertical-align:top;">:</td><td><div>127.0.0.1</div></td></tr><tr><td style="font-weight:bold;vertical-align:top;">session_cookie_compression_level</td><td style="vertical-align:top;">:</td><td><div>None</div></td></tr><tr><td style="font-weight:bold;vertical-align:top;">session_cookie_expires</td><td style="vertical-align:top;">:</td><td><div>None</div></td></tr><tr><td style="font-weight:bold;vertical-align:top;">session_data_name</td><td style="vertical-align:top;">:</td><td><div>session_data_darkcloud1</div></td></tr><tr><td style="font-weight:bold;vertical-align:top;">session_file</td><td style="vertical-align:top;">:</td><td><div>&lt;open file &#x27;C:\\\\Users\\\\hd\\\\PycharmProjects\\\\untitled\\\\web2py\\\\applications\\\\darkcloud1\\\\sessions\\\\121\\\\11c\\\\127.0.0.1-7eecb705-f1a9-426f-ae22-88e750fb5cfa&#x27;, mode &#x27;rb+&#x27; at 0x000000000D7BCF60&gt;</div></td></tr><tr><td style="font-weight:bold;vertical-align:top;">session_filename</td><td style="vertical-align:top;">:</td><td><div>C:\\Users\\hd\\PycharmProjects\\untitled\\web2py\\applications\\darkcloud1\\sessions\\127.0.0.1-7eecb705-f1a9-426f-ae22-88e750fb5cfa</div></td></tr><tr><td style="font-weight:bold;vertical-align:top;">session_hash</td><td style="vertical-align:top;">:</td><td><div>e902f143749c1f2a2c231c2d3d0da727</div></td></tr><tr><td style="font-weight:bold;vertical-align:top;">session_id</td><td style="vertical-align:top;">:</td><td><div>127.0.0.1-7eecb705-f1a9-426f-ae22-88e750fb5cfa</div></td></tr><tr><td style="font-weight:bold;vertical-align:top;">session_id_name</td><td style="vertical-align:top;">:</td><td><div>session_id_darkcloud1</div></td></tr><tr><td style="font-weight:bold;vertical-align:top;">session_locked</td><td style="vertical-align:top;">:</td><td><div>True</div></td></tr><tr><td style="font-weight:bold;vertical-align:top;">session_masterapp</td><td style="vertical-align:top;">:</td><td><div>darkcloud1</div></td></tr><tr><td style="font-weight:bold;vertical-align:top;">session_new</td><td style="vertical-align:top;">:</td><td><div>False</div></td></tr><tr><td style="font-weight:bold;vertical-align:top;">session_storage_type</td><td style="vertical-align:top;">:</td><td><div>file</div></td></tr><tr><td style="font-weight:bold;vertical-align:top;">status</td><td style="vertical-align:top;">:</td><td><div>200</div></td></tr><tr><td style="font-weight:bold;vertical-align:top;">view</td><td style="vertical-align:top;">:</td><td><div>default/subscriber.html</div></td></tr></table></div>'
tRp429
sS'locals'
p430
(dp431
S'errorclass'
p432
S"<class 'gluon.contrib.pymysql.err.InternalError'>"
p433
sS'errno'
p434
S'1060'
p435
sS'is_41'
p436
S'True'
p437
sS'errval'
p438
S'u"Duplicate column name \'enrollement_timestamp\'"'
p439
sS'data'
p440
S'"\\xff$\\x04#42S21Duplicate column name \'enrollement_timestamp\'"'
p441
sssS'traceback'
p442
S'Traceback (most recent call last):\n  File "C:\\Users\\hd\\PycharmProjects\\untitled\\web2py\\gluon\\restricted.py", line 219, in restricted\n    exec(ccode, environment)\n  File "C:\\Users\\hd\\PycharmProjects\\untitled\\web2py\\applications\\darkcloud1\\models\\db.py", line 193, in <module>\n    primarykey=[\'id\']\n  File "C:\\Users\\hd\\PycharmProjects\\untitled\\web2py\\gluon\\packages\\dal\\pydal\\base.py", line 586, in define_table\n    table = self.lazy_define_table(tablename, *fields, **args)\n  File "C:\\Users\\hd\\PycharmProjects\\untitled\\web2py\\gluon\\packages\\dal\\pydal\\base.py", line 620, in lazy_define_table\n    polymodel=polymodel)\n  File "C:\\Users\\hd\\PycharmProjects\\untitled\\web2py\\gluon\\packages\\dal\\pydal\\adapters\\base.py", line 797, in create_table\n    return self.migrator.create_table(*args, **kwargs)\n  File "C:\\Users\\hd\\PycharmProjects\\untitled\\web2py\\gluon\\packages\\dal\\pydal\\migrator.py", line 314, in create_table\n    fake_migrate=fake_migrate\n  File "C:\\Users\\hd\\PycharmProjects\\untitled\\web2py\\gluon\\packages\\dal\\pydal\\migrator.py", line 447, in migrate_table\n    self.adapter.execute(sub_query)\n  File "C:\\Users\\hd\\PycharmProjects\\untitled\\web2py\\gluon\\packages\\dal\\pydal\\adapters\\__init__.py", line 67, in wrap\n    return f(*args, **kwargs)\n  File "C:\\Users\\hd\\PycharmProjects\\untitled\\web2py\\gluon\\packages\\dal\\pydal\\adapters\\base.py", line 412, in execute\n    rv = self.cursor.execute(command, *args[1:], **kwargs)\n  File "C:\\Users\\hd\\PycharmProjects\\untitled\\web2py\\gluon\\contrib\\pymysql\\cursors.py", line 166, in execute\n    result = self._query(query)\n  File "C:\\Users\\hd\\PycharmProjects\\untitled\\web2py\\gluon\\contrib\\pymysql\\cursors.py", line 322, in _query\n    conn.query(q)\n  File "C:\\Users\\hd\\PycharmProjects\\untitled\\web2py\\gluon\\contrib\\pymysql\\connections.py", line 835, in query\n    self._affected_rows = self._read_query_result(unbuffered=unbuffered)\n  File "C:\\Users\\hd\\PycharmProjects\\untitled\\web2py\\gluon\\contrib\\pymysql\\connections.py", line 1019, in _read_query_result\n    result.read()\n  File "C:\\Users\\hd\\PycharmProjects\\untitled\\web2py\\gluon\\contrib\\pymysql\\connections.py", line 1302, in read\n    first_packet = self.connection._read_packet()\n  File "C:\\Users\\hd\\PycharmProjects\\untitled\\web2py\\gluon\\contrib\\pymysql\\connections.py", line 981, in _read_packet\n    packet.check_error()\n  File "C:\\Users\\hd\\PycharmProjects\\untitled\\web2py\\gluon\\contrib\\pymysql\\connections.py", line 393, in check_error\n    err.raise_mysql_exception(self._data)\n  File "C:\\Users\\hd\\PycharmProjects\\untitled\\web2py\\gluon\\contrib\\pymysql\\err.py", line 107, in raise_mysql_exception\n    raise errorclass(errno, errval)\nInternalError: (1060, u"Duplicate column name \'enrollement_timestamp\'")\n'
p443
s.