(dp1
S'output'
p2
S'<class \'gluon.contrib.pymysql.err.InternalError\'> (1060, u"Duplicate column name \'os_version\'")'
p3
sS'layer'
p4
S'C:\\Users\\hd\\PycharmProjects\\untitled\\web2py\\applications\\darkcloud1\\models\\db.py'
p5
sS'code'
p6
S'<code object <module> at 000000000DD82DB0, file "C:\\Users\\hd\\PycharmProjects\\untitled\\web2py\\applications\\darkcloud1\\models\\db.py", line 7>'
p7
sS'snapshot'
p8
(dp9
S'exception'
p10
(dp11
S'__module__'
p12
S"'gluon.contrib.pymysql.err'"
p13
sS'__getslice__'
p14
S"<method-wrapper '__getslice__' of InternalError object>"
p15
sS'__str__'
p16
S"<method-wrapper '__str__' of InternalError object>"
p17
sS'__reduce__'
p18
S'<built-in method __reduce__ of InternalError object>'
p19
sS'__dict__'
p20
S'{}'
p21
sS'__sizeof__'
p22
S'<built-in method __sizeof__ of InternalError object>'
p23
sS'__weakref__'
p24
S'None'
p25
sS'message'
p26
S"''"
p27
sS'__init__'
p28
S"<method-wrapper '__init__' of InternalError object>"
p29
sS'__setattr__'
p30
S"<method-wrapper '__setattr__' of InternalError object>"
p31
sS'__reduce_ex__'
p32
S'<built-in method __reduce_ex__ of InternalError object>'
p33
sS'__new__'
p34
S'<built-in method __new__ of type object>'
p35
sS'__format__'
p36
S'<built-in method __format__ of InternalError object>'
p37
sS'__class__'
p38
S"<class 'gluon.contrib.pymysql.err.InternalError'>"
p39
sS'__doc__'
p40
S"'Exception raised when the database encounters an...anymore, the transaction is\\n    out of sync, etc.'"
p41
sS'__getitem__'
p42
S"<method-wrapper '__getitem__' of InternalError object>"
p43
sS'__setstate__'
p44
S'<built-in method __setstate__ of InternalError object>'
p45
sS'__getattribute__'
p46
S"<method-wrapper '__getattribute__' of InternalError object>"
p47
sS'args'
p48
S'(1060, u"Duplicate column name \'os_version\'")'
p49
sS'__subclasshook__'
p50
S'<built-in method __subclasshook__ of type object>'
p51
sS'__unicode__'
p52
S'<built-in method __unicode__ of InternalError object>'
p53
sS'__delattr__'
p54
S"<method-wrapper '__delattr__' of InternalError object>"
p55
sS'__repr__'
p56
S"<method-wrapper '__repr__' of InternalError object>"
p57
sS'__hash__'
p58
S"<method-wrapper '__hash__' of InternalError object>"
p59
ssS'evalue'
p60
S'(1060, u"Duplicate column name \'os_version\'")'
p61
sS'request'
p62
cgluon.html
XML_unpickle
p63
(S'sa_\x00\x00<div><table><tr><td style="font-weight:bold;vertical-align:top;">ajax</td><td style="vertical-align:top;">:</td><td><div>False</div></td></tr><tr><td style="font-weight:bold;vertical-align:top;">application</td><td style="vertical-align:top;">:</td><td><div>darkcloud1</div></td></tr><tr><td style="font-weight:bold;vertical-align:top;">args</td><td style="vertical-align:top;">:</td><td><div><table></table></div></td></tr><tr><td style="font-weight:bold;vertical-align:top;">cid</td><td style="vertical-align:top;">:</td><td><div>None</div></td></tr><tr><td style="font-weight:bold;vertical-align:top;">client</td><td style="vertical-align:top;">:</td><td><div>127.0.0.1</div></td></tr><tr><td style="font-weight:bold;vertical-align:top;">controller</td><td style="vertical-align:top;">:</td><td><div>default</div></td></tr><tr><td style="font-weight:bold;vertical-align:top;">cookies</td><td style="vertical-align:top;">:</td><td><div><table><tr><td style="font-weight:bold;vertical-align:top;">session_id_admin</td><td style="vertical-align:top;">:</td><td><div>127.0.0.1-8f466f2a-c9f1-497e-9554-20cbb6660840<table><tr><td style="font-weight:bold;vertical-align:top;">comment</td><td style="vertical-align:top;">:</td><td><div></div></td></tr><tr><td style="font-weight:bold;vertical-align:top;">domain</td><td style="vertical-align:top;">:</td><td><div></div></td></tr><tr><td style="font-weight:bold;vertical-align:top;">expires</td><td style="vertical-align:top;">:</td><td><div></div></td></tr><tr><td style="font-weight:bold;vertical-align:top;">httponly</td><td style="vertical-align:top;">:</td><td><div></div></td></tr><tr><td style="font-weight:bold;vertical-align:top;">max-age</td><td style="vertical-align:top;">:</td><td><div></div></td></tr><tr><td style="font-weight:bold;vertical-align:top;">path</td><td style="vertical-align:top;">:</td><td><div></div></td></tr><tr><td style="font-weight:bold;vertical-align:top;">secure</td><td style="vertical-align:top;">:</td><td><div></div></td></tr><tr><td style="font-weight:bold;vertical-align:top;">version</td><td style="vertical-align:top;">:</td><td><div></div></td></tr></table></div></td></tr><tr><td style="font-weight:bold;vertical-align:top;">session_id_darkcloud1</td><td style="vertical-align:top;">:</td><td><div>127.0.0.1-3409330e-f8df-496c-b78c-a7fffbf52421<table><tr><td style="font-weight:bold;vertical-align:top;">comment</td><td style="vertical-align:top;">:</td><td><div></div></td></tr><tr><td style="font-weight:bold;vertical-align:top;">domain</td><td style="vertical-align:top;">:</td><td><div></div></td></tr><tr><td style="font-weight:bold;vertical-align:top;">expires</td><td style="vertical-align:top;">:</td><td><div></div></td></tr><tr><td style="font-weight:bold;vertical-align:top;">httponly</td><td style="vertical-align:top;">:</td><td><div></div></td></tr><tr><td style="font-weight:bold;vertical-align:top;">max-age</td><td style="vertical-align:top;">:</td><td><div></div></td></tr><tr><td style="font-weight:bold;vertical-align:top;">path</td><td style="vertical-align:top;">:</td><td><div></div></td></tr><tr><td style="font-weight:bold;vertical-align:top;">secure</td><td style="vertical-align:top;">:</td><td><div></div></td></tr><tr><td style="font-weight:bold;vertical-align:top;">version</td><td style="vertical-align:top;">:</td><td><div></div></td></tr></table></div></td></tr><tr><td style="font-weight:bold;vertical-align:top;">session_id_welcome</td><td style="vertical-align:top;">:</td><td><div>127.0.0.1-9ea852e7-2535-4e83-a772-ffdbd723fd86<table><tr><td style="font-weight:bold;vertical-align:top;">comment</td><td style="vertical-align:top;">:</td><td><div></div></td></tr><tr><td style="font-weight:bold;vertical-align:top;">domain</td><td style="vertical-align:top;">:</td><td><div></div></td></tr><tr><td style="font-weight:bold;vertical-align:top;">expires</td><td style="vertical-align:top;">:</td><td><div></div></td></tr><tr><td style="font-weight:bold;vertical-align:top;">httponly</td><td style="vertical-align:top;">:</td><td><div></div></td></tr><tr><td style="font-weight:bold;vertical-align:top;">max-age</td><td style="vertical-align:top;">:</td><td><div></div></td></tr><tr><td style="font-weight:bold;vertical-align:top;">path</td><td style="vertical-align:top;">:</td><td><div></div></td></tr><tr><td style="font-weight:bold;vertical-align:top;">secure</td><td style="vertical-align:top;">:</td><td><div></div></td></tr><tr><td style="font-weight:bold;vertical-align:top;">version</td><td style="vertical-align:top;">:</td><td><div></div></td></tr></table></div></td></tr></table></div></td></tr><tr><td style="font-weight:bold;vertical-align:top;">env</td><td style="vertical-align:top;">:</td><td><div><table><tr><td style="font-weight:bold;vertical-align:top;">HTTP_ACCEPT</td><td style="vertical-align:top;">:</td><td><div>text/html, application/xhtml+xml, image/jxr, */*</div></td></tr><tr><td style="font-weight:bold;vertical-align:top;">HTTP_ACCEPT_ENCODING</td><td style="vertical-align:top;">:</td><td><div>gzip, deflate</div></td></tr><tr><td style="font-weight:bold;vertical-align:top;">HTTP_ACCEPT_LANGUAGE</td><td style="vertical-align:top;">:</td><td><div>en-US</div></td></tr><tr><td style="font-weight:bold;vertical-align:top;">HTTP_CONNECTION</td><td style="vertical-align:top;">:</td><td><div>Keep-Alive</div></td></tr><tr><td style="font-weight:bold;vertical-align:top;">HTTP_COOKIE</td><td style="vertical-align:top;">:</td><td><div>session_id_welcome=127.0.0.1-9ea852e7-2535-4e83-a772-ffdbd723fd86; session_id_admin=127.0.0.1-8f466f2a-c9f1-497e-9554-20cbb6660840; session_id_darkcloud1=127.0.0.1-3409330e-f8df-496c-b78c-a7fffbf52421</div></td></tr><tr><td style="font-weight:bold;vertical-align:top;">HTTP_HOST</td><td style="vertical-align:top;">:</td><td><div>127.0.0.1:8000</div></td></tr><tr><td style="font-weight:bold;vertical-align:top;">HTTP_USER_AGENT</td><td style="vertical-align:top;">:</td><td><div>Mozilla/5.0 (Windows NT 10.0; Win64; x64) AppleWebKit/537.36 (KHTML, like Gecko) Chrome/58.0.3029.110 Safari/537.36 Edge/16.16299</div></td></tr><tr><td style="font-weight:bold;vertical-align:top;">PATH_INFO</td><td style="vertical-align:top;">:</td><td><div>/darkcloud1/default/subscriber</div></td></tr><tr><td style="font-weight:bold;vertical-align:top;">QUERY_STRING</td><td style="vertical-align:top;">:</td><td><div></div></td></tr><tr><td style="font-weight:bold;vertical-align:top;">REMOTE_ADDR</td><td style="vertical-align:top;">:</td><td><div>127.0.0.1</div></td></tr><tr><td style="font-weight:bold;vertical-align:top;">REMOTE_PORT</td><td style="vertical-align:top;">:</td><td><div>56497</div></td></tr><tr><td style="font-weight:bold;vertical-align:top;">REQUEST_METHOD</td><td style="vertical-align:top;">:</td><td><div>GET</div></td></tr><tr><td style="font-weight:bold;vertical-align:top;">SCRIPT_NAME</td><td style="vertical-align:top;">:</td><td><div></div></td></tr><tr><td style="font-weight:bold;vertical-align:top;">SERVER_NAME</td><td style="vertical-align:top;">:</td><td><div>tasneem</div></td></tr><tr><td style="font-weight:bold;vertical-align:top;">SERVER_PORT</td><td style="vertical-align:top;">:</td><td><div>8000</div></td></tr><tr><td style="font-weight:bold;vertical-align:top;">SERVER_PROTOCOL</td><td style="vertical-align:top;">:</td><td><div>HTTP/1.1</div></td></tr><tr><td style="font-weight:bold;vertical-align:top;">SERVER_SOFTWARE</td><td style="vertical-align:top;">:</td><td><div>Rocket 1.2.6</div></td></tr><tr><td style="font-weight:bold;vertical-align:top;">app_folders</td><td style="vertical-align:top;">:</td><td><div>set([&#x27;C:\\\\Users\\\\hd\\\\PycharmProjects\\\\untitled\\\\web2py\\\\applications\\\\darkcloud1\\\\&#x27;, &#x27;C:\\\\Users\\\\hd\\\\PycharmProjects\\\\untitled\\\\web2py\\\\applications\\\\admin\\\\&#x27;, &#x27;C:\\\\Users\\\\hd\\\\PycharmProjects\\\\untitled\\\\web2py\\\\applications\\\\welcome\\\\&#x27;])</div></td></tr><tr><td style="font-weight:bold;vertical-align:top;">applications_parent</td><td style="vertical-align:top;">:</td><td><div>C:\\Users\\hd\\PycharmProjects\\untitled\\web2py</div></td></tr><tr><td style="font-weight:bold;vertical-align:top;">cmd_args</td><td style="vertical-align:top;">:</td><td><div><table></table></div></td></tr><tr><td style="font-weight:bold;vertical-align:top;">cmd_options</td><td style="vertical-align:top;">:</td><td><div>&lt;Values at 0x7567e08: {&#x27;verbose&#x27;: False, &#x27;ip&#x27;: &#x27;127.0.0.1&#x27;, &#x27;debuglevel&#x27;: 30, &#x27;with_scheduler&#x27;: False, &#x27;shutdown_timeout&#x27;: 5, &#x27;taskbar&#x27;: False, &#x27;with_coverage&#x27;: False, &#x27;pid_filename&#x27;: &#x27;httpserver.pid&#x27;, &#x27;maxthreads&#x27;: None, &#x27;softcron&#x27;: False, &#x27;server_name&#x27;: &#x27;tasneem&#x27;, &#x27;bpython&#x27;: False, &#x27;nogui&#x27;: False, &#x27;port&#x27;: 8000, &#x27;print_errors&#x27;: False, &#x27;extcron&#x27;: False, &#x27;runcron&#x27;: False, &#x27;run_system_tests&#x27;: False, &#x27;test&#x27;: None, &#x27;folder&#x27;: &#x27;C:\\\\Users\\\\hd\\\\PycharmProjects\\\\untitled\\\\web2py&#x27;, &#x27;config&#x27;: &#x27;&#x27;, &#x27;minthreads&#x27;: None, &#x27;shell&#x27;: None, &#x27;run&#x27;: &#x27;&#x27;, &#x27;log_filename&#x27;: &#x27;httpserver.log&#x27;, &#x27;profiler_dir&#x27;: None, &#x27;args&#x27;: [&#x27;&#x27;], &#x27;socket_timeout&#x27;: 5, &#x27;ssl_ca_certificate&#x27;: None, &#x27;scheduler&#x27;: None, &#x27;interfaces&#x27;: None, &#x27;ssl_private_key&#x27;: &#x27;&#x27;, &#x27;gae&#x27;: None, &#x27;password&#x27;: &#x27;******&#x27;, &#x27;request_queue_size&#x27;: 5, &#x27;ssl_certificate&#x27;: &#x27;&#x27;, &#x27;cronjob&#x27;: False, &#x27;numthreads&#x27;: None, &#x27;quiet&#x27;: False, &#x27;import_models&#x27;: False, &#x27;timeout&#x27;: 10, &#x27;plain&#x27;: False, &#x27;nobanner&#x27;: False}&gt;</div></td></tr><tr><td style="font-weight:bold;vertical-align:top;">db_sessions</td><td style="vertical-align:top;">:</td><td><div>set([])</div></td></tr><tr><td style="font-weight:bold;vertical-align:top;">debugging</td><td style="vertical-align:top;">:</td><td><div>False</div></td></tr><tr><td style="font-weight:bold;vertical-align:top;">gluon_parent</td><td style="vertical-align:top;">:</td><td><div>C:\\Users\\hd\\PycharmProjects\\untitled\\web2py</div></td></tr><tr><td style="font-weight:bold;vertical-align:top;">http_accept</td><td style="vertical-align:top;">:</td><td><div>text/html, application/xhtml+xml, image/jxr, */*</div></td></tr><tr><td style="font-weight:bold;vertical-align:top;">http_accept_encoding</td><td style="vertical-align:top;">:</td><td><div>gzip, deflate</div></td></tr><tr><td style="font-weight:bold;vertical-align:top;">http_accept_language</td><td style="vertical-align:top;">:</td><td><div>en-US</div></td></tr><tr><td style="font-weight:bold;vertical-align:top;">http_connection</td><td style="vertical-align:top;">:</td><td><div>Keep-Alive</div></td></tr><tr><td style="font-weight:bold;vertical-align:top;">http_cookie</td><td style="vertical-align:top;">:</td><td><div>session_id_welcome=127.0.0.1-9ea852e7-2535-4e83-a772-ffdbd723fd86; session_id_admin=127.0.0.1-8f466f2a-c9f1-497e-9554-20cbb6660840; session_id_darkcloud1=127.0.0.1-3409330e-f8df-496c-b78c-a7fffbf52421</div></td></tr><tr><td style="font-weight:bold;vertical-align:top;">http_host</td><td style="vertical-align:top;">:</td><td><div>127.0.0.1:8000</div></td></tr><tr><td style="font-weight:bold;vertical-align:top;">http_user_agent</td><td style="vertical-align:top;">:</td><td><div>Mozilla/5.0 (Windows NT 10.0; Win64; x64) AppleWebKit/537.36 (KHTML, like Gecko) Chrome/58.0.3029.110 Safari/537.36 Edge/16.16299</div></td></tr><tr><td style="font-weight:bold;vertical-align:top;">is_jython</td><td style="vertical-align:top;">:</td><td><div>False</div></td></tr><tr><td style="font-weight:bold;vertical-align:top;">is_py2</td><td style="vertical-align:top;">:</td><td><div>True</div></td></tr><tr><td style="font-weight:bold;vertical-align:top;">is_pypy</td><td style="vertical-align:top;">:</td><td><div>False</div></td></tr><tr><td style="font-weight:bold;vertical-align:top;">is_source</td><td style="vertical-align:top;">:</td><td><div>True</div></td></tr><tr><td style="font-weight:bold;vertical-align:top;">local_hosts</td><td style="vertical-align:top;">:</td><td><div><table><tr><td><div>192.168.153.1</div></td></tr><tr><td><div>fe80::5cf7:579:cc61:1cf0%22</div></td></tr><tr><td><div>fe80::41b4:b3f5:1301:13c2%10</div></td></tr><tr><td><div>fe80::d18c:aaa8:7042:24e8%15</div></td></tr><tr><td><div>::ffff:127.0.0.1</div></td></tr><tr><td><div>::1</div></td></tr><tr><td><div>192.168.188.1</div></td></tr><tr><td><div>192.168.50.1</div></td></tr><tr><td><div>192.168.1.4</div></td></tr><tr><td><div>fe80::4807:4abc:a288:fdb3%2</div></td></tr><tr><td><div>tasneem</div></td></tr><tr><td><div>fe80::ec74:5042:7a11:bddb%9</div></td></tr><tr><td><div>192.168.108.1</div></td></tr><tr><td><div>fe80::70c1:6b8f:528a:de5b%4</div></td></tr><tr><td><div>127.0.0.1</div></td></tr><tr><td><div>192.168.56.1</div></td></tr></table></div></td></tr><tr><td style="font-weight:bold;vertical-align:top;">path_info</td><td style="vertical-align:top;">:</td><td><div>/darkcloud1/default/subscriber</div></td></tr><tr><td style="font-weight:bold;vertical-align:top;">query_string</td><td style="vertical-align:top;">:</td><td><div></div></td></tr><tr><td style="font-weight:bold;vertical-align:top;">remote_addr</td><td style="vertical-align:top;">:</td><td><div>127.0.0.1</div></td></tr><tr><td style="font-weight:bold;vertical-align:top;">remote_port</td><td style="vertical-align:top;">:</td><td><div>56497</div></td></tr><tr><td style="font-weight:bold;vertical-align:top;">request_method</td><td style="vertical-align:top;">:</td><td><div>GET</div></td></tr><tr><td style="font-weight:bold;vertical-align:top;">request_uri</td><td style="vertical-align:top;">:</td><td><div>/darkcloud1/default/subscriber</div></td></tr><tr><td style="font-weight:bold;vertical-align:top;">script_name</td><td style="vertical-align:top;">:</td><td><div></div></td></tr><tr><td style="font-weight:bold;vertical-align:top;">server_name</td><td style="vertical-align:top;">:</td><td><div>tasneem</div></td></tr><tr><td style="font-weight:bold;vertical-align:top;">server_port</td><td style="vertical-align:top;">:</td><td><div>8000</div></td></tr><tr><td style="font-weight:bold;vertical-align:top;">server_protocol</td><td style="vertical-align:top;">:</td><td><div>HTTP/1.1</div></td></tr><tr><td style="font-weight:bold;vertical-align:top;">server_software</td><td style="vertical-align:top;">:</td><td><div>Rocket 1.2.6</div></td></tr><tr><td style="font-weight:bold;vertical-align:top;">web2py_path</td><td style="vertical-align:top;">:</td><td><div>C:\\Users\\hd\\PycharmProjects\\untitled\\web2py</div></td></tr><tr><td style="font-weight:bold;vertical-align:top;">web2py_version</td><td style="vertical-align:top;">:</td><td><div>2.16.1-stable+timestamp.2017.11.14.05.54.25</div></td></tr><tr><td style="font-weight:bold;vertical-align:top;">wsgi.errors</td><td style="vertical-align:top;">:</td><td><div>&lt;open file &#x27;&lt;stderr&gt;&#x27;, mode &#x27;w&#x27; at 0x0000000005D0B150&gt;</div></td></tr><tr><td style="font-weight:bold;vertical-align:top;">wsgi.file_wrapper</td><td style="vertical-align:top;">:</td><td><div>&lt;class wsgiref.util.FileWrapper at 0x0000000007526348&gt;</div></td></tr><tr><td style="font-weight:bold;vertical-align:top;">wsgi.input</td><td style="vertical-align:top;">:</td><td><div>&lt;socket._fileobject object at 0x000000000EA0AB88&gt;</div></td></tr><tr><td style="font-weight:bold;vertical-align:top;">wsgi.multiprocess</td><td style="vertical-align:top;">:</td><td><div>False</div></td></tr><tr><td style="font-weight:bold;vertical-align:top;">wsgi.multithread</td><td style="vertical-align:top;">:</td><td><div>True</div></td></tr><tr><td style="font-weight:bold;vertical-align:top;">wsgi.run_once</td><td style="vertical-align:top;">:</td><td><div>False</div></td></tr><tr><td style="font-weight:bold;vertical-align:top;">wsgi.url_scheme</td><td style="vertical-align:top;">:</td><td><div>http</div></td></tr><tr><td style="font-weight:bold;vertical-align:top;">wsgi.version</td><td style="vertical-align:top;">:</td><td><div><table><tr><td><div>1</div></td></tr><tr><td><div>0</div></td></tr></table></div></td></tr><tr><td style="font-weight:bold;vertical-align:top;">wsgi_errors</td><td style="vertical-align:top;">:</td><td><div>&lt;open file &#x27;&lt;stderr&gt;&#x27;, mode &#x27;w&#x27; at 0x0000000005D0B150&gt;</div></td></tr><tr><td style="font-weight:bold;vertical-align:top;">wsgi_file_wrapper</td><td style="vertical-align:top;">:</td><td><div>&lt;class wsgiref.util.FileWrapper at 0x0000000007526348&gt;</div></td></tr><tr><td style="font-weight:bold;vertical-align:top;">wsgi_input</td><td style="vertical-align:top;">:</td><td><div>&lt;socket._fileobject object at 0x000000000EA0AB88&gt;</div></td></tr><tr><td style="font-weight:bold;vertical-align:top;">wsgi_multiprocess</td><td style="vertical-align:top;">:</td><td><div>False</div></td></tr><tr><td style="font-weight:bold;vertical-align:top;">wsgi_multithread</td><td style="vertical-align:top;">:</td><td><div>True</div></td></tr><tr><td style="font-weight:bold;vertical-align:top;">wsgi_run_once</td><td style="vertical-align:top;">:</td><td><div>False</div></td></tr><tr><td style="font-weight:bold;vertical-align:top;">wsgi_url_scheme</td><td style="vertical-align:top;">:</td><td><div>http</div></td></tr><tr><td style="font-weight:bold;vertical-align:top;">wsgi_version</td><td style="vertical-align:top;">:</td><td><div><table><tr><td><div>1</div></td></tr><tr><td><div>0</div></td></tr></table></div></td></tr></table></div></td></tr><tr><td style="font-weight:bold;vertical-align:top;">extension</td><td style="vertical-align:top;">:</td><td><div>html</div></td></tr><tr><td style="font-weight:bold;vertical-align:top;">folder</td><td style="vertical-align:top;">:</td><td><div>C:\\Users\\hd\\PycharmProjects\\untitled\\web2py\\applications\\darkcloud1\\</div></td></tr><tr><td style="font-weight:bold;vertical-align:top;">function</td><td style="vertical-align:top;">:</td><td><div>subscriber</div></td></tr><tr><td style="font-weight:bold;vertical-align:top;">global_settings</td><td style="vertical-align:top;">:</td><td><div><table><tr><td style="font-weight:bold;vertical-align:top;">app_folders</td><td style="vertical-align:top;">:</td><td><div>set([&#x27;C:\\\\Users\\\\hd\\\\PycharmProjects\\\\untitled\\\\web2py\\\\applications\\\\darkcloud1\\\\&#x27;, &#x27;C:\\\\Users\\\\hd\\\\PycharmProjects\\\\untitled\\\\web2py\\\\applications\\\\admin\\\\&#x27;, &#x27;C:\\\\Users\\\\hd\\\\PycharmProjects\\\\untitled\\\\web2py\\\\applications\\\\welcome\\\\&#x27;])</div></td></tr><tr><td style="font-weight:bold;vertical-align:top;">applications_parent</td><td style="vertical-align:top;">:</td><td><div>C:\\Users\\hd\\PycharmProjects\\untitled\\web2py</div></td></tr><tr><td style="font-weight:bold;vertical-align:top;">cmd_args</td><td style="vertical-align:top;">:</td><td><div><table></table></div></td></tr><tr><td style="font-weight:bold;vertical-align:top;">cmd_options</td><td style="vertical-align:top;">:</td><td><div>&lt;Values at 0x7567e08: {&#x27;verbose&#x27;: False, &#x27;ip&#x27;: &#x27;127.0.0.1&#x27;, &#x27;debuglevel&#x27;: 30, &#x27;with_scheduler&#x27;: False, &#x27;shutdown_timeout&#x27;: 5, &#x27;taskbar&#x27;: False, &#x27;with_coverage&#x27;: False, &#x27;pid_filename&#x27;: &#x27;httpserver.pid&#x27;, &#x27;maxthreads&#x27;: None, &#x27;softcron&#x27;: False, &#x27;server_name&#x27;: &#x27;tasneem&#x27;, &#x27;bpython&#x27;: False, &#x27;nogui&#x27;: False, &#x27;port&#x27;: 8000, &#x27;print_errors&#x27;: False, &#x27;extcron&#x27;: False, &#x27;runcron&#x27;: False, &#x27;run_system_tests&#x27;: False, &#x27;test&#x27;: None, &#x27;folder&#x27;: &#x27;C:\\\\Users\\\\hd\\\\PycharmProjects\\\\untitled\\\\web2py&#x27;, &#x27;config&#x27;: &#x27;&#x27;, &#x27;minthreads&#x27;: None, &#x27;shell&#x27;: None, &#x27;run&#x27;: &#x27;&#x27;, &#x27;log_filename&#x27;: &#x27;httpserver.log&#x27;, &#x27;profiler_dir&#x27;: None, &#x27;args&#x27;: [&#x27;&#x27;], &#x27;socket_timeout&#x27;: 5, &#x27;ssl_ca_certificate&#x27;: None, &#x27;scheduler&#x27;: None, &#x27;interfaces&#x27;: None, &#x27;ssl_private_key&#x27;: &#x27;&#x27;, &#x27;gae&#x27;: None, &#x27;password&#x27;: &#x27;******&#x27;, &#x27;request_queue_size&#x27;: 5, &#x27;ssl_certificate&#x27;: &#x27;&#x27;, &#x27;cronjob&#x27;: False, &#x27;numthreads&#x27;: None, &#x27;quiet&#x27;: False, &#x27;import_models&#x27;: False, &#x27;timeout&#x27;: 10, &#x27;plain&#x27;: False, &#x27;nobanner&#x27;: False}&gt;</div></td></tr><tr><td style="font-weight:bold;vertical-align:top;">db_sessions</td><td style="vertical-align:top;">:</td><td><div>set([])</div></td></tr><tr><td style="font-weight:bold;vertical-align:top;">debugging</td><td style="vertical-align:top;">:</td><td><div>False</div></td></tr><tr><td style="font-weight:bold;vertical-align:top;">gluon_parent</td><td style="vertical-align:top;">:</td><td><div>C:\\Users\\hd\\PycharmProjects\\untitled\\web2py</div></td></tr><tr><td style="font-weight:bold;vertical-align:top;">is_jython</td><td style="vertical-align:top;">:</td><td><div>False</div></td></tr><tr><td style="font-weight:bold;vertical-align:top;">is_py2</td><td style="vertical-align:top;">:</td><td><div>True</div></td></tr><tr><td style="font-weight:bold;vertical-align:top;">is_pypy</td><td style="vertical-align:top;">:</td><td><div>False</div></td></tr><tr><td style="font-weight:bold;vertical-align:top;">is_source</td><td style="vertical-align:top;">:</td><td><div>True</div></td></tr><tr><td style="font-weight:bold;vertical-align:top;">local_hosts</td><td style="vertical-align:top;">:</td><td><div><table><tr><td><div>192.168.153.1</div></td></tr><tr><td><div>fe80::5cf7:579:cc61:1cf0%22</div></td></tr><tr><td><div>fe80::41b4:b3f5:1301:13c2%10</div></td></tr><tr><td><div>fe80::d18c:aaa8:7042:24e8%15</div></td></tr><tr><td><div>::ffff:127.0.0.1</div></td></tr><tr><td><div>::1</div></td></tr><tr><td><div>192.168.188.1</div></td></tr><tr><td><div>192.168.50.1</div></td></tr><tr><td><div>192.168.1.4</div></td></tr><tr><td><div>fe80::4807:4abc:a288:fdb3%2</div></td></tr><tr><td><div>tasneem</div></td></tr><tr><td><div>fe80::ec74:5042:7a11:bddb%9</div></td></tr><tr><td><div>192.168.108.1</div></td></tr><tr><td><div>fe80::70c1:6b8f:528a:de5b%4</div></td></tr><tr><td><div>127.0.0.1</div></td></tr><tr><td><div>192.168.56.1</div></td></tr></table></div></td></tr><tr><td style="font-weight:bold;vertical-align:top;">web2py_version</td><td style="vertical-align:top;">:</td><td><div>2.16.1-stable+timestamp.2017.11.14.05.54.25</div></td></tr></table></div></td></tr><tr><td style="font-weight:bold;vertical-align:top;">is_https</td><td style="vertical-align:top;">:</td><td><div>False</div></td></tr><tr><td style="font-weight:bold;vertical-align:top;">is_local</td><td style="vertical-align:top;">:</td><td><div>True</div></td></tr><tr><td style="font-weight:bold;vertical-align:top;">is_restful</td><td style="vertical-align:top;">:</td><td><div>False</div></td></tr><tr><td style="font-weight:bold;vertical-align:top;">is_scheduler</td><td style="vertical-align:top;">:</td><td><div>False</div></td></tr><tr><td style="font-weight:bold;vertical-align:top;">is_shell</td><td style="vertical-align:top;">:</td><td><div>False</div></td></tr><tr><td style="font-weight:bold;vertical-align:top;">now</td><td style="vertical-align:top;">:</td><td><div>datetime.datetime(2018, 4, 22, 3, 49, 19, 214000)</div></td></tr><tr><td style="font-weight:bold;vertical-align:top;">raw_args</td><td style="vertical-align:top;">:</td><td><div></div></td></tr><tr><td style="font-weight:bold;vertical-align:top;">raw_extension</td><td style="vertical-align:top;">:</td><td><div>None</div></td></tr><tr><td style="font-weight:bold;vertical-align:top;">url</td><td style="vertical-align:top;">:</td><td><div>/darkcloud1/default/subscriber</div></td></tr><tr><td style="font-weight:bold;vertical-align:top;">utcnow</td><td style="vertical-align:top;">:</td><td><div>datetime.datetime(2018, 4, 22, 1, 49, 19, 214000)</div></td></tr><tr><td style="font-weight:bold;vertical-align:top;">wsgi</td><td style="vertical-align:top;">:</td><td><div>&lt;gluon.main.LazyWSGI object at 0x00000000108E1F98&gt;</div></td></tr></table></div>'
tRp64
sS'frames'
p65
(lp66
(dp67
S'file'
p68
S'C:\\Users\\hd\\PycharmProjects\\untitled\\web2py\\gluon\\restricted.py'
p69
sS'dump'
p70
(dp71
S'environment'
p72
S"{'A': <class 'gluon.html.A'>, 'ANY_OF': <class 'gluon.validators.ANY_OF'>, 'ASSIGNJS': <function ASSIGNJS>, 'AppConfig': <function AppConfig>, 'Auth': <class 'gluon.tools.Auth'>, 'B': <class 'gluon.html.B'>, 'BEAUTIFY': <class 'gluon.html.BEAUTIFY'>, 'BODY': <class 'gluon.html.BODY'>, 'BR': <class 'gluon.html.BR'>, 'BUTTON': <class 'gluon.html.BUTTON'>, ...}"
p73
sS'ccode'
p74
S'<code object <module> at 000000000DD82DB0, file ...py\\applications\\darkcloud1\\models\\db.py", line 7>'
p75
ssS'lnum'
p76
I219
sS'lines'
p77
(dp78
I214
S'    if environment is None:'
p79
sI215
S'        environment = {}'
p80
sI216
S"    environment['__file__'] = layer"
p81
sI217
S"    environment['__name__'] = '__restricted__'"
p82
sI218
S'    try:'
p83
sI219
S'        exec(ccode, environment)'
p84
sI220
S'    except HTTP:'
p85
sI221
S'        raise'
p86
sI222
S'    except RestrictedError:'
p87
sI223
S'        # do not encapsulate (obfuscate) the original RestrictedError'
p88
ssS'call'
p89
S'(ccode=<code object <module> at 000000000DD82DB0, file ...py\\applications\\darkcloud1\\models\\db.py", line 7>, environment={\'A\': <class \'gluon.html.A\'>, \'ANY_OF\': <class \'gluon.validators.ANY_OF\'>, \'ASSIGNJS\': <function ASSIGNJS>, \'AppConfig\': <function AppConfig>, \'Auth\': <class \'gluon.tools.Auth\'>, \'B\': <class \'gluon.html.B\'>, \'BEAUTIFY\': <class \'gluon.html.BEAUTIFY\'>, \'BODY\': <class \'gluon.html.BODY\'>, \'BR\': <class \'gluon.html.BR\'>, \'BUTTON\': <class \'gluon.html.BUTTON\'>, ...}, layer=r\'C:\\Users\\hd\\PycharmProjects\\untitled\\web2py\\applications\\darkcloud1\\models\\db.py\', scode=<code object <module> at 000000000DD82DB0, file ...py\\applications\\darkcloud1\\models\\db.py", line 7>)'
p90
sS'func'
p91
S'restricted'
p92
sa(dp93
g68
S'C:\\Users\\hd\\PycharmProjects\\untitled\\web2py\\applications\\darkcloud1\\models\\db.py'
p94
sg70
(dp95
S'primarykey'
p96
S'undefined'
p97
ssg76
I181
sg77
(dp98
I176
S"   Field('ip', notnull = True,requires=IS_NOT_EMPTY()),"
p99
sI177
S"   Field('owner_ID', notnull = True,requires=IS_NOT_EMPTY()),"
p100
sI178
S"   Field('os_version','string',requires=IS_NOT_EMPTY()),"
p101
sI179
S"   Field('enrollement_timestamp','string',requires=(IS_NOT_EMPTY(),IS_DATE('%y-%m-%d'))),"
p102
sI180
S"   Field('enrolled_flag', 'boolean'),"
p103
sI181
S"    primarykey=['endpoint_id']"
p104
sI182
S''
sI183
S')'
sI184
S''
sI185
S'db.define_table('
p105
ssg89
S'()'
p106
sg91
S'<module>'
p107
sa(dp108
g68
S'C:\\Users\\hd\\PycharmProjects\\untitled\\web2py\\gluon\\packages\\dal\\pydal\\base.py'
p109
sg70
(dp110
S'fields'
p111
S'(<pydal.objects.Field object>, <pydal.objects.Field object>, <pydal.objects.Field object>, <pydal.objects.Field object>, <pydal.objects.Field object>, <pydal.objects.Field object>)'
p112
sS'self'
p113
S'<DAL uri="mysql:******@localhost/darkcloud">'
p114
sS'args'
p115
S"{'primarykey': ['endpoint_id']}"
p116
sS'tablename'
p117
S"'endpoint_agents'"
p118
sS'table'
p119
g97
sS'self.lazy_define_table'
p120
S'<bound method DAL.lazy_define_table of <DAL uri="mysql:******@localhost/darkcloud">>'
p121
ssg76
I586
sg77
(dp122
I581
S'                                  (tablename, invalid_args))'
p123
sI582
S'        if self._lazy_tables and tablename not in self._LAZY_TABLES:'
p124
sI583
S'            self._LAZY_TABLES[tablename] = (tablename, fields, args)'
p125
sI584
S'            table = None'
p126
sI585
S'        else:'
p127
sI586
S'            table = self.lazy_define_table(tablename, *fields, **args)'
p128
sI587
S'        if tablename not in self.tables:'
p129
sI588
S'            self.tables.append(tablename)'
p130
sI589
S'        return table'
p131
sI590
S''
ssg89
S'(self=<DAL uri="mysql:******@localhost/darkcloud">, tablename=\'endpoint_agents\', *fields=(<pydal.objects.Field object>, <pydal.objects.Field object>, <pydal.objects.Field object>, <pydal.objects.Field object>, <pydal.objects.Field object>, <pydal.objects.Field object>), **args={\'primarykey\': [\'endpoint_id\']})'
p132
sg91
S'define_table'
p133
sa(dp134
g68
S'C:\\Users\\hd\\PycharmProjects\\untitled\\web2py\\gluon\\packages\\dal\\pydal\\base.py'
p135
sg70
(dp136
S'polymodel'
p137
S'None'
p138
ssg76
I620
sg77
(dp139
I615
S'            try:'
p140
sI616
S'                GLOBAL_LOCKER.acquire()'
p141
sI617
S'                self._adapter.create_table('
p142
sI618
S'                    table, migrate=migrate,'
p143
sI619
S'                    fake_migrate=fake_migrate,'
p144
sI620
S'                    polymodel=polymodel)'
p145
sI621
S'            finally:'
p146
sI622
S'                GLOBAL_LOCKER.release()'
p147
sI623
S'        else:'
p148
sI624
S'            table._dbt = None'
p149
ssg89
S'(self=<DAL uri="mysql:******@localhost/darkcloud">, tablename=\'endpoint_agents\', *fields=(<pydal.objects.Field object>, <pydal.objects.Field object>, <pydal.objects.Field object>, <pydal.objects.Field object>, <pydal.objects.Field object>, <pydal.objects.Field object>), **args={\'primarykey\': [\'endpoint_id\']})'
p150
sg91
S'lazy_define_table'
p151
sa(dp152
g68
S'C:\\Users\\hd\\PycharmProjects\\untitled\\web2py\\gluon\\packages\\dal\\pydal\\adapters\\base.py'
p153
sg70
(dp154
S'self'
p155
S'<pydal.adapters.mysql.MySQL object>'
p156
sS'args'
p157
S'(<Table endpoint_agents (endpoint_id, ip, owner_I...s_version, enrollement_timestamp, enrolled_flag)>,)'
p158
sS'self.migrator'
p159
S'<pydal.migrator.Migrator object>'
p160
sS'self.migrator.create_table'
p161
S'<bound method Migrator.create_table of <pydal.migrator.Migrator object>>'
p162
sS'kwargs'
p163
S"{'fake_migrate': False, 'migrate': True, 'polymodel': None}"
p164
ssg76
I797
sg77
(dp165
I800
S'        super(SQLAdapter, self)._drop_table_cleanup(table)'
p166
sI801
S'        if table._dbt:'
p167
sI792
S''
sI793
S'    def bulk_insert(self, table, items):'
p168
sI794
S'        return [self.insert(table, item) for item in items]'
p169
sI795
S''
sI796
S'    def create_table(self, *args, **kwargs):'
p170
sI797
S'        return self.migrator.create_table(*args, **kwargs)'
p171
sI798
S''
sI799
S'    def _drop_table_cleanup(self, table):'
p172
ssg89
S"(self=<pydal.adapters.mysql.MySQL object>, *args=(<Table endpoint_agents (endpoint_id, ip, owner_I...s_version, enrollement_timestamp, enrolled_flag)>,), **kwargs={'fake_migrate': False, 'migrate': True, 'polymodel': None})"
p173
sg91
S'create_table'
p174
sa(dp175
g68
S'C:\\Users\\hd\\PycharmProjects\\untitled\\web2py\\gluon\\packages\\dal\\pydal\\migrator.py'
p176
sg70
(dp177
S'fake_migrate'
p178
S'False'
p179
ssg76
I314
sg77
(dp180
I309
S'            if sql_fields != sql_fields_old:'
p181
sI310
S'                self.migrate_table('
p182
sI311
S'                    table,'
p183
sI312
S'                    sql_fields, sql_fields_old,'
p184
sI313
S'                    sql_fields_aux, None,'
p185
sI314
S'                    fake_migrate=fake_migrate'
p186
sI315
S'                    )'
p187
sI316
S'        return query'
p188
sI317
S''
sI318
S'    def _fix(self, item):'
p189
ssg89
S'(self=<pydal.migrator.Migrator object>, table=<Table endpoint_agents (endpoint_id, ip, owner_I...s_version, enrollement_timestamp, enrolled_flag)>, migrate=True, fake_migrate=False, polymodel=None)'
p190
sg91
g174
sa(dp191
g68
S'C:\\Users\\hd\\PycharmProjects\\untitled\\web2py\\gluon\\packages\\dal\\pydal\\migrator.py'
p192
sg70
(dp193
S'self'
p194
S'<pydal.migrator.Migrator object>'
p195
sS'self.adapter.execute'
p196
S'<bound method MySQL.wrap of <pydal.adapters.mysql.MySQL object>>'
p197
sS'self.adapter'
p198
S'<pydal.adapters.mysql.MySQL object>'
p199
sS'sub_query'
p200
S"'ALTER TABLE `endpoint_agents` ADD `os_version` VARCHAR(512);'"
p201
ssg76
I447
sg77
(dp202
I448
S'                        # Caveat: mysql, oracle and firebird'
p203
sI449
S'                        # do not allow multiple alter table'
p204
sI450
S'                        # in one transaction so we must commit'
p205
sI451
S'                        # partial transactions and'
p206
sI442
S'                    if fake_migrate:'
p207
sI443
S'                        if db._adapter.commit_on_alter_table:'
p208
sI444
S'                            self.save_dbt(table, sql_fields_current)'
p209
sI445
S"                        self.log('faked!\\n', table)"
p210
sI446
S'                    else:'
p211
sI447
S'                        self.adapter.execute(sub_query)'
p212
ssg89
S"(self=<pydal.migrator.Migrator object>, table=<Table endpoint_agents (endpoint_id, ip, owner_I...s_version, enrollement_timestamp, enrolled_flag)>, sql_fields={'endpoint_id': {'length': 255, 'notnull': True, 'raw_rname': 'endpoint_id', 'rname': '`endpoint_id`', 'sortable': 1, 'sql': 'VARCHAR(255) NOT NULL', 'type': 'string', 'unique': False}, 'enrolled_flag': {'length': 512, 'notnull': False, 'raw_rname': 'enrolled_flag', 'rname': '`enrolled_flag`', 'sortable': 6, 'sql': 'CHAR(1)', 'type': 'boolean', 'unique': False}, 'enrollement_timestamp': {'length': 512, 'notnull': False, 'raw_rname': 'enrollement_timestamp', 'rname': '`enrollement_timestamp`', 'sortable': 5, 'sql': 'VARCHAR(512)', 'type': 'string', 'unique': False}, 'ip': {'length': 512, 'notnull': True, 'raw_rname': 'ip', 'rname': '`ip`', 'sortable': 2, 'sql': 'VARCHAR(512) NOT NULL', 'type': 'string', 'unique': False}, 'os_version': {'length': 512, 'notnull': False, 'raw_rname': 'os_version', 'rname': '`os_version`', 'sortable': 4, 'sql': 'VARCHAR(512)', 'type': 'string', 'unique': False}, 'owner_id': {'length': 512, 'notnull': True, 'raw_rname': 'owner_ID', 'rname': '`owner_ID`', 'sortable': 3, 'sql': 'VARCHAR(512) NOT NULL', 'type': 'string', 'unique': False}}, sql_fields_old={'endpoint_id': {'length': 255, 'notnull': True, 'raw_rname': 'endpoint_id', 'rname': '`endpoint_id`', 'sortable': 1, 'sql': 'VARCHAR(255) NOT NULL', 'type': 'string', 'unique': False}, 'enrolled_flag': {'length': 512, 'notnull': False, 'raw_rname': 'enrolled_flag', 'rname': '`enrolled_flag`', 'sortable': 6, 'sql': 'CHAR(1)', 'type': 'boolean', 'unique': False}, 'enrollement_timestamp': {'length': 512, 'notnull': False, 'raw_rname': 'enrollement_timestamp', 'rname': '`enrollement_timestamp`', 'sortable': 5, 'sql': 'VARCHAR(512)', 'type': 'string', 'unique': False}, 'ip': {'length': 512, 'notnull': True, 'raw_rname': 'ip', 'rname': '`ip`', 'sortable': 2, 'sql': 'VARCHAR(512) NOT NULL', 'type': 'string', 'unique': False}, 'owner_id': {'length': 512, 'notnull': True, 'raw_rname': 'owner_ID', 'rname': '`owner_ID`', 'sortable': 3, 'sql': 'VARCHAR(512) NOT NULL', 'type': 'string', 'unique': False}, 'version_os': {'length': 512, 'notnull': False, 'raw_rname': 'version_os', 'rname': '`version_os`', 'sortable': 4, 'sql': 'VARCHAR(512)', 'type': 'string', 'unique': False}}, sql_fields_aux={'endpoint_id': {'sql': 'VARCHAR(255) NOT NULL'}, 'enrolled_flag': {'sql': 'CHAR(1)'}, 'enrollement_timestamp': {'sql': 'VARCHAR(512)'}, 'ip': {'sql': 'VARCHAR(512) NOT NULL'}, 'os_version': {'sql': 'VARCHAR(512)'}, 'owner_id': {'sql': 'VARCHAR(512) NOT NULL'}}, logfile=None, fake_migrate=False)"
p213
sg91
S'migrate_table'
p214
sa(dp215
g68
S'C:\\Users\\hd\\PycharmProjects\\untitled\\web2py\\gluon\\packages\\dal\\pydal\\adapters\\__init__.py'
p216
sg70
(dp217
S'kwargs'
p218
g21
sS'args'
p219
S"(<pydal.adapters.mysql.MySQL object>, 'ALTER TABLE `endpoint_agents` ADD `os_version` VARCHAR(512);')"
p220
sS'f'
S'<function execute>'
p221
ssg76
I67
sg77
(dp222
I64
S'            if len(args) > 1:'
p223
sI65
S'                raise ValueError(args[1])'
p224
sI66
S"            raise RuntimeError('no connection available')"
p225
sI67
S'        return f(*args, **kwargs)'
p226
sI68
S'    return wrap'
p227
sI69
S''
sI70
S''
sI71
S'from .base import SQLAdapter, NoSQLAdapter'
p228
sI62
S'    def wrap(*args, **kwargs):'
p229
sI63
S'        if not args[0].connection:'
p230
ssg89
S"(*args=(<pydal.adapters.mysql.MySQL object>, 'ALTER TABLE `endpoint_agents` ADD `os_version` VARCHAR(512);'), **kwargs={})"
p231
sg91
S'wrap'
p232
sa(dp233
g68
S'C:\\Users\\hd\\PycharmProjects\\untitled\\web2py\\gluon\\packages\\dal\\pydal\\adapters\\base.py'
p234
sg70
(dp235
S'rv'
p236
g97
sS'self'
p237
S'<pydal.adapters.mysql.MySQL object>'
p238
sS'args'
p239
S"('ALTER TABLE `endpoint_agents` ADD `os_version` VARCHAR(512);',)"
p240
sS'self.cursor'
p241
S'<gluon.contrib.pymysql.cursors.Cursor object>'
p242
sS'command'
p243
S"'ALTER TABLE `endpoint_agents` ADD `os_version` VARCHAR(512);'"
p244
sS'self.cursor.execute'
p245
S'<bound method Cursor.execute of <gluon.contrib.pymysql.cursors.Cursor object>>'
p246
sS'kwargs'
p247
g21
ssg76
I412
sg77
(dp248
I416
S''
sI407
S'    def execute(self, *args, **kwargs):'
p249
sI408
S'        command = self.filter_sql_command(args[0])'
p250
sI409
S'        handlers = self._build_handlers_for_execution()'
p251
sI410
S'        for handler in handlers:'
p252
sI411
S'            handler.before_execute(command)'
p253
sI412
S'        rv = self.cursor.execute(command, *args[1:], **kwargs)'
p254
sI413
S'        for handler in handlers:'
p255
sI414
S'            handler.after_execute(command)'
p256
sI415
S'        return rv'
p257
ssg89
S"(self=<pydal.adapters.mysql.MySQL object>, *args=('ALTER TABLE `endpoint_agents` ADD `os_version` VARCHAR(512);',), **kwargs={})"
p258
sg91
S'execute'
p259
sa(dp260
g68
S'C:\\Users\\hd\\PycharmProjects\\untitled\\web2py\\gluon\\contrib\\pymysql\\cursors.py'
p261
sg70
(dp262
S'query'
p263
S"'ALTER TABLE `endpoint_agents` ADD `os_version` VARCHAR(512);'"
p264
sS'self'
p265
S'<gluon.contrib.pymysql.cursors.Cursor object>'
p266
sS'result'
p267
g97
sS'self._query'
p268
S'<bound method Cursor._query of <gluon.contrib.pymysql.cursors.Cursor object>>'
p269
ssg76
I166
sg77
(dp270
I161
S'        while self.nextset():'
p271
sI162
S'            pass'
p272
sI163
S''
sI164
S'        query = self.mogrify(query, args)'
p273
sI165
S''
sI166
S'        result = self._query(query)'
p274
sI167
S'        self._executed = query'
p275
sI168
S'        return result'
p276
sI169
S''
sI170
S'    def executemany(self, query, args):'
p277
ssg89
S"(self=<gluon.contrib.pymysql.cursors.Cursor object>, query='ALTER TABLE `endpoint_agents` ADD `os_version` VARCHAR(512);', args=None)"
p278
sg91
g259
sa(dp279
g68
S'C:\\Users\\hd\\PycharmProjects\\untitled\\web2py\\gluon\\contrib\\pymysql\\cursors.py'
p280
sg70
(dp281
S'q'
S"'ALTER TABLE `endpoint_agents` ADD `os_version` VARCHAR(512);'"
p282
sS'conn.query'
p283
S'<bound method Connection.query of <gluon.contrib.pymysql.connections.Connection object>>'
p284
sS'conn'
p285
S'<gluon.contrib.pymysql.connections.Connection object>'
p286
ssg76
I322
sg77
(dp287
I320
S'        conn = self._get_db()'
p288
sI321
S'        self._last_executed = q'
p289
sI322
S'        conn.query(q)'
p290
sI323
S'        self._do_get_result()'
p291
sI324
S'        return self.rowcount'
p292
sI325
S''
sI326
S'    def _do_get_result(self):'
p293
sI317
S'        self.rownumber = r'
p294
sI318
S''
sI319
S'    def _query(self, q):'
p295
ssg89
S"(self=<gluon.contrib.pymysql.cursors.Cursor object>, q='ALTER TABLE `endpoint_agents` ADD `os_version` VARCHAR(512);')"
p296
sg91
S'_query'
p297
sa(dp298
g68
S'C:\\Users\\hd\\PycharmProjects\\untitled\\web2py\\gluon\\contrib\\pymysql\\connections.py'
p299
sg70
(dp300
S'self._read_query_result'
p301
S'<bound method Connection._read_query_result of <...n.contrib.pymysql.connections.Connection object>>'
p302
sS'self'
p303
S'<gluon.contrib.pymysql.connections.Connection object>'
p304
sS'unbuffered'
p305
g179
sS'self._affected_rows'
p306
S'1'
ssg76
I835
sg77
(dp307
I832
S'            else:'
p308
sI833
S"                sql = sql.encode(self.encoding, 'surrogateescape')"
p309
sI834
S'        self._execute_command(COMMAND.COM_QUERY, sql)'
p310
sI835
S'        self._affected_rows = self._read_query_result(unbuffered=unbuffered)'
p311
sI836
S'        return self._affected_rows'
p312
sI837
S''
sI838
S'    def next_result(self, unbuffered=False):'
p313
sI839
S'        self._affected_rows = self._read_query_result(unbuffered=unbuffered)'
p314
sI830
S'            if PY2:'
p315
sI831
S'                sql = sql.encode(self.encoding)'
p316
ssg89
S"(self=<gluon.contrib.pymysql.connections.Connection object>, sql='ALTER TABLE `endpoint_agents` ADD `os_version` VARCHAR(512);', unbuffered=False)"
p317
sg91
S'query'
p318
sa(dp319
g68
S'C:\\Users\\hd\\PycharmProjects\\untitled\\web2py\\gluon\\contrib\\pymysql\\connections.py'
p320
sg70
(dp321
S'result.read'
p322
S'<bound method MySQLResult.read of <gluon.contrib.pymysql.connections.MySQLResult object>>'
p323
sS'result'
p324
S'<gluon.contrib.pymysql.connections.MySQLResult object>'
p325
ssg76
I1019
sg77
(dp326
I1014
S'                result.unbuffered_active = False'
p327
sI1015
S'                result.connection = None'
p328
sI1016
S'                raise'
p329
sI1017
S'        else:'
p330
sI1018
S'            result = MySQLResult(self)'
p331
sI1019
S'            result.read()'
p332
sI1020
S'        self._result = result'
p333
sI1021
S'        if result.server_status is not None:'
p334
sI1022
S'            self.server_status = result.server_status'
p335
sI1023
S'        return result.affected_rows'
p336
ssg89
S'(self=<gluon.contrib.pymysql.connections.Connection object>, unbuffered=False)'
p337
sg91
S'_read_query_result'
p338
sa(dp339
g68
S'C:\\Users\\hd\\PycharmProjects\\untitled\\web2py\\gluon\\contrib\\pymysql\\connections.py'
p340
sg70
(dp341
S'first_packet'
p342
g97
sS'self'
p343
S'<gluon.contrib.pymysql.connections.MySQLResult object>'
p344
sS'self.connection'
p345
S'None'
p346
sS'self.connection._read_packet'
p347
g97
ssg76
I1302
sg77
(dp348
I1297
S'        if self.unbuffered_active:'
p349
sI1298
S'            self._finish_unbuffered_query()'
p350
sI1299
S''
sI1300
S'    def read(self):'
p351
sI1301
S'        try:'
p352
sI1302
S'            first_packet = self.connection._read_packet()'
p353
sI1303
S''
sI1304
S'            if first_packet.is_ok_packet():'
p354
sI1305
S'                self._read_ok_packet(first_packet)'
p355
sI1306
S'            elif first_packet.is_load_local_packet():'
p356
ssg89
S'(self=<gluon.contrib.pymysql.connections.MySQLResult object>)'
p357
sg91
S'read'
p358
sa(dp359
g68
S'C:\\Users\\hd\\PycharmProjects\\untitled\\web2py\\gluon\\contrib\\pymysql\\connections.py'
p360
sg70
(dp361
S'packet'
p362
S'<gluon.contrib.pymysql.connections.MysqlPacket object>'
p363
sS'packet.check_error'
p364
S'<bound method MysqlPacket.check_error of <gluon.contrib.pymysql.connections.MysqlPacket object>>'
p365
ssg76
I981
sg77
(dp366
I976
S'                continue'
p367
sI977
S'            if bytes_to_read < MAX_PACKET_LEN:'
p368
sI978
S'                break'
p369
sI979
S''
sI980
S'        packet = packet_type(buff, self.encoding)'
p370
sI981
S'        packet.check_error()'
p371
sI982
S'        return packet'
p372
sI983
S''
sI984
S'    def _read_bytes(self, num_bytes):'
p373
sI985
S'        self._sock.settimeout(self._read_timeout)'
p374
ssg89
S"(self=<gluon.contrib.pymysql.connections.Connection object>, packet_type=<class 'gluon.contrib.pymysql.connections.MysqlPacket'>)"
p375
sg91
S'_read_packet'
p376
sa(dp377
g68
S'C:\\Users\\hd\\PycharmProjects\\untitled\\web2py\\gluon\\contrib\\pymysql\\connections.py'
p378
sg70
(dp379
S'self._data'
p380
S'"\\xff$\\x04#42S21Duplicate column name \'os_version\'"'
p381
sS'self'
p382
S'<gluon.contrib.pymysql.connections.MysqlPacket object>'
p383
sS'global err'
p384
S"<module 'gluon.contrib.pymysql.err' from 'C:\\Use...s\\untitled\\web2py\\gluon\\contrib\\pymysql\\err.pyc'>"
p385
sS'err.raise_mysql_exception'
p386
S'<function raise_mysql_exception>'
p387
ssg76
I393
sg77
(dp388
I388
S'        if self.is_error_packet():'
p389
sI389
S'            self.rewind()'
p390
sI390
S'            self.advance(1)  # field_count == error (we already know that)'
p391
sI391
S'            errno = self.read_uint16()'
p392
sI392
S'            if DEBUG: print("errno =", errno)'
p393
sI393
S'            err.raise_mysql_exception(self._data)'
p394
sI394
S''
sI395
S'    def dump(self):'
p395
sI396
S'        dump_packet(self._data)'
p396
sI397
S''
ssg89
S'(self=<gluon.contrib.pymysql.connections.MysqlPacket object>)'
p397
sg91
S'check_error'
p398
sa(dp399
g68
S'C:\\Users\\hd\\PycharmProjects\\untitled\\web2py\\gluon\\contrib\\pymysql\\err.py'
p400
sg70
(dp401
S'errorclass'
p402
S"<class 'gluon.contrib.pymysql.err.InternalError'>"
p403
sS'errno'
p404
S'1060'
p405
sS'errval'
p406
S'u"Duplicate column name \'os_version\'"'
p407
ssg76
I107
sg77
(dp408
I98
S'def raise_mysql_exception(data):'
p409
sI99
S"    errno = struct.unpack('<h', data[1:3])[0]"
p410
sI100
S'    is_41 = data[3:4] == b"#"'
p411
sI101
S'    if is_41:'
p412
sI102
S'        # client protocol 4.1'
p413
sI103
S"        errval = data[9:].decode('utf-8', 'replace')"
p414
sI104
S'    else:'
p415
sI105
S"        errval = data[3:].decode('utf-8', 'replace')"
p416
sI106
S'    errorclass = error_map.get(errno, InternalError)'
p417
sI107
S'    raise errorclass(errno, errval)'
p418
ssg89
S'(data="\\xff$\\x04#42S21Duplicate column name \'os_version\'")'
p419
sg91
S'raise_mysql_exception'
p420
sasS'pyver'
p421
S'Python 2.7.13: C:\\python27-x64\\python.exe (prefix: C:\\python27-x64)'
p422
sS'session'
p423
g63
(S's\xd3\x08\x00\x00<div><table><tr><td style="font-weight:bold;vertical-align:top;">action</td><td style="vertical-align:top;">:</td><td><div>scripts</div></td></tr><tr><td style="font-weight:bold;vertical-align:top;">avgendpoints</td><td style="vertical-align:top;">:</td><td><div>0</div></td></tr><tr><td style="font-weight:bold;vertical-align:top;">avgsensors</td><td style="vertical-align:top;">:</td><td><div>0</div></td></tr><tr><td style="font-weight:bold;vertical-align:top;">last_orderby</td><td style="vertical-align:top;">:</td><td><div>None</div></td></tr><tr><td style="font-weight:bold;vertical-align:top;">last_query</td><td style="vertical-align:top;">:</td><td><div>db.users.email!=&quot;&quot;</div></td></tr><tr><td style="font-weight:bold;vertical-align:top;">showtable</td><td style="vertical-align:top;">:</td><td><div>None</div></td></tr><tr><td style="font-weight:bold;vertical-align:top;">user</td><td style="vertical-align:top;">:</td><td><div><table><tr><td style="font-weight:bold;vertical-align:top;">License_count_endpoint</td><td style="vertical-align:top;">:</td><td><div>None</div></td></tr><tr><td style="font-weight:bold;vertical-align:top;">License_count_sensors</td><td style="vertical-align:top;">:</td><td><div>None</div></td></tr><tr><td style="font-weight:bold;vertical-align:top;">email</td><td style="vertical-align:top;">:</td><td><div>subscriber@subscriber.com</div></td></tr><tr><td style="font-weight:bold;vertical-align:top;">firstname</td><td style="vertical-align:top;">:</td><td><div>subscriber</div></td></tr><tr><td style="font-weight:bold;vertical-align:top;">lastname</td><td style="vertical-align:top;">:</td><td><div>subscriber</div></td></tr><tr><td style="font-weight:bold;vertical-align:top;">password</td><td style="vertical-align:top;">:</td><td><div>1</div></td></tr><tr><td style="font-weight:bold;vertical-align:top;">username</td><td style="vertical-align:top;">:</td><td><div>subscriber</div></td></tr><tr><td style="font-weight:bold;vertical-align:top;">usertype</td><td style="vertical-align:top;">:</td><td><div>2L</div></td></tr></table></div></td></tr><tr><td style="font-weight:bold;vertical-align:top;">vars</td><td style="vertical-align:top;">:</td><td><div><table></table></div></td></tr></table></div>'
tRp424
sS'etype'
p425
S"<class 'gluon.contrib.pymysql.err.InternalError'>"
p426
sS'date'
p427
S'Sun Apr 22 03:49:19 2018'
p428
sS'response'
p429
g63
(S's\x17\x1b\x00\x00<div><table><tr><td style="font-weight:bold;vertical-align:top;">body</td><td style="vertical-align:top;">:</td><td><div>&lt;cStringIO.StringO object at 0x000000000F370030&gt;</div></td></tr><tr><td style="font-weight:bold;vertical-align:top;">cookies</td><td style="vertical-align:top;">:</td><td><div><table><tr><td style="font-weight:bold;vertical-align:top;">session_id_darkcloud1</td><td style="vertical-align:top;">:</td><td><div>127.0.0.1-3409330e-f8df-496c-b78c-a7fffbf52421<table><tr><td style="font-weight:bold;vertical-align:top;">comment</td><td style="vertical-align:top;">:</td><td><div></div></td></tr><tr><td style="font-weight:bold;vertical-align:top;">domain</td><td style="vertical-align:top;">:</td><td><div></div></td></tr><tr><td style="font-weight:bold;vertical-align:top;">expires</td><td style="vertical-align:top;">:</td><td><div></div></td></tr><tr><td style="font-weight:bold;vertical-align:top;">httponly</td><td style="vertical-align:top;">:</td><td><div></div></td></tr><tr><td style="font-weight:bold;vertical-align:top;">max-age</td><td style="vertical-align:top;">:</td><td><div></div></td></tr><tr><td style="font-weight:bold;vertical-align:top;">path</td><td style="vertical-align:top;">:</td><td><div>/</div></td></tr><tr><td style="font-weight:bold;vertical-align:top;">secure</td><td style="vertical-align:top;">:</td><td><div></div></td></tr><tr><td style="font-weight:bold;vertical-align:top;">version</td><td style="vertical-align:top;">:</td><td><div></div></td></tr></table></div></td></tr></table></div></td></tr><tr><td style="font-weight:bold;vertical-align:top;">delimiters</td><td style="vertical-align:top;">:</td><td><div><table><tr><td><div>{{</div></td></tr><tr><td><div>}}</div></td></tr></table></div></td></tr><tr><td style="font-weight:bold;vertical-align:top;">files</td><td style="vertical-align:top;">:</td><td><div><table></table></div></td></tr><tr><td style="font-weight:bold;vertical-align:top;">flash</td><td style="vertical-align:top;">:</td><td><div></div></td></tr><tr><td style="font-weight:bold;vertical-align:top;">form_label_separator</td><td style="vertical-align:top;">:</td><td><div></div></td></tr><tr><td style="font-weight:bold;vertical-align:top;">formstyle</td><td style="vertical-align:top;">:</td><td><div>bootstrap4_inline</div></td></tr><tr><td style="font-weight:bold;vertical-align:top;">generic_patterns</td><td style="vertical-align:top;">:</td><td><div><table><tr><td><div>*</div></td></tr></table></div></td></tr><tr><td style="font-weight:bold;vertical-align:top;">google_analytics_id</td><td style="vertical-align:top;">:</td><td><div>None</div></td></tr><tr><td style="font-weight:bold;vertical-align:top;">headers</td><td style="vertical-align:top;">:</td><td><div><table><tr><td style="font-weight:bold;vertical-align:top;">X-Powered-By</td><td style="vertical-align:top;">:</td><td><div>web2py</div></td></tr></table></div></td></tr><tr><td style="font-weight:bold;vertical-align:top;">menu</td><td style="vertical-align:top;">:</td><td><div><table></table></div></td></tr><tr><td style="font-weight:bold;vertical-align:top;">meta</td><td style="vertical-align:top;">:</td><td><div><table><tr><td style="font-weight:bold;vertical-align:top;">author</td><td style="vertical-align:top;">:</td><td><div>Your Name &lt;you@example.com&gt;</div></td></tr><tr><td style="font-weight:bold;vertical-align:top;">description</td><td style="vertical-align:top;">:</td><td><div>a cool new app</div></td></tr><tr><td style="font-weight:bold;vertical-align:top;">generator</td><td style="vertical-align:top;">:</td><td><div>Web2py Web Framework</div></td></tr><tr><td style="font-weight:bold;vertical-align:top;">keywords</td><td style="vertical-align:top;">:</td><td><div><table><tr><td><div>web2py</div></td></tr><tr><td><div>python</div></td></tr><tr><td><div>framework</div></td></tr></table></div></td></tr></table></div></td></tr><tr><td style="font-weight:bold;vertical-align:top;">models_to_run</td><td style="vertical-align:top;">:</td><td><div><table><tr><td><div>^\\w+\\.py$</div></td></tr><tr><td><div>^default/\\w+\\.py$</div></td></tr><tr><td><div>^default/subscriber/\\w+\\.py$</div></td></tr></table></div></td></tr><tr><td style="font-weight:bold;vertical-align:top;">postprocessing</td><td style="vertical-align:top;">:</td><td><div><table></table></div></td></tr><tr><td style="font-weight:bold;vertical-align:top;">session_client</td><td style="vertical-align:top;">:</td><td><div>127.0.0.1</div></td></tr><tr><td style="font-weight:bold;vertical-align:top;">session_cookie_compression_level</td><td style="vertical-align:top;">:</td><td><div>None</div></td></tr><tr><td style="font-weight:bold;vertical-align:top;">session_cookie_expires</td><td style="vertical-align:top;">:</td><td><div>None</div></td></tr><tr><td style="font-weight:bold;vertical-align:top;">session_data_name</td><td style="vertical-align:top;">:</td><td><div>session_data_darkcloud1</div></td></tr><tr><td style="font-weight:bold;vertical-align:top;">session_file</td><td style="vertical-align:top;">:</td><td><div>&lt;open file &#x27;C:\\\\Users\\\\hd\\\\PycharmProjects\\\\untitled\\\\web2py\\\\applications\\\\darkcloud1\\\\sessions\\\\092\\\\1ec\\\\127.0.0.1-3409330e-f8df-496c-b78c-a7fffbf52421&#x27;, mode &#x27;rb+&#x27; at 0x000000000F4A3A50&gt;</div></td></tr><tr><td style="font-weight:bold;vertical-align:top;">session_filename</td><td style="vertical-align:top;">:</td><td><div>C:\\Users\\hd\\PycharmProjects\\untitled\\web2py\\applications\\darkcloud1\\sessions\\127.0.0.1-3409330e-f8df-496c-b78c-a7fffbf52421</div></td></tr><tr><td style="font-weight:bold;vertical-align:top;">session_hash</td><td style="vertical-align:top;">:</td><td><div>96412155493408466938dfa6f48c90f7</div></td></tr><tr><td style="font-weight:bold;vertical-align:top;">session_id</td><td style="vertical-align:top;">:</td><td><div>127.0.0.1-3409330e-f8df-496c-b78c-a7fffbf52421</div></td></tr><tr><td style="font-weight:bold;vertical-align:top;">session_id_name</td><td style="vertical-align:top;">:</td><td><div>session_id_darkcloud1</div></td></tr><tr><td style="font-weight:bold;vertical-align:top;">session_locked</td><td style="vertical-align:top;">:</td><td><div>True</div></td></tr><tr><td style="font-weight:bold;vertical-align:top;">session_masterapp</td><td style="vertical-align:top;">:</td><td><div>darkcloud1</div></td></tr><tr><td style="font-weight:bold;vertical-align:top;">session_new</td><td style="vertical-align:top;">:</td><td><div>False</div></td></tr><tr><td style="font-weight:bold;vertical-align:top;">session_storage_type</td><td style="vertical-align:top;">:</td><td><div>file</div></td></tr><tr><td style="font-weight:bold;vertical-align:top;">status</td><td style="vertical-align:top;">:</td><td><div>200</div></td></tr><tr><td style="font-weight:bold;vertical-align:top;">view</td><td style="vertical-align:top;">:</td><td><div>default/subscriber.html</div></td></tr></table></div>'
tRp430
sS'locals'
p431
(dp432
S'errorclass'
p433
S"<class 'gluon.contrib.pymysql.err.InternalError'>"
p434
sS'errno'
p435
S'1060'
p436
sS'is_41'
p437
S'True'
p438
sS'errval'
p439
S'u"Duplicate column name \'os_version\'"'
p440
sS'data'
p441
S'"\\xff$\\x04#42S21Duplicate column name \'os_version\'"'
p442
sssS'traceback'
p443
S'Traceback (most recent call last):\n  File "C:\\Users\\hd\\PycharmProjects\\untitled\\web2py\\gluon\\restricted.py", line 219, in restricted\n    exec(ccode, environment)\n  File "C:\\Users\\hd\\PycharmProjects\\untitled\\web2py\\applications\\darkcloud1\\models\\db.py", line 181, in <module>\n    primarykey=[\'endpoint_id\']\n  File "C:\\Users\\hd\\PycharmProjects\\untitled\\web2py\\gluon\\packages\\dal\\pydal\\base.py", line 586, in define_table\n    table = self.lazy_define_table(tablename, *fields, **args)\n  File "C:\\Users\\hd\\PycharmProjects\\untitled\\web2py\\gluon\\packages\\dal\\pydal\\base.py", line 620, in lazy_define_table\n    polymodel=polymodel)\n  File "C:\\Users\\hd\\PycharmProjects\\untitled\\web2py\\gluon\\packages\\dal\\pydal\\adapters\\base.py", line 797, in create_table\n    return self.migrator.create_table(*args, **kwargs)\n  File "C:\\Users\\hd\\PycharmProjects\\untitled\\web2py\\gluon\\packages\\dal\\pydal\\migrator.py", line 314, in create_table\n    fake_migrate=fake_migrate\n  File "C:\\Users\\hd\\PycharmProjects\\untitled\\web2py\\gluon\\packages\\dal\\pydal\\migrator.py", line 447, in migrate_table\n    self.adapter.execute(sub_query)\n  File "C:\\Users\\hd\\PycharmProjects\\untitled\\web2py\\gluon\\packages\\dal\\pydal\\adapters\\__init__.py", line 67, in wrap\n    return f(*args, **kwargs)\n  File "C:\\Users\\hd\\PycharmProjects\\untitled\\web2py\\gluon\\packages\\dal\\pydal\\adapters\\base.py", line 412, in execute\n    rv = self.cursor.execute(command, *args[1:], **kwargs)\n  File "C:\\Users\\hd\\PycharmProjects\\untitled\\web2py\\gluon\\contrib\\pymysql\\cursors.py", line 166, in execute\n    result = self._query(query)\n  File "C:\\Users\\hd\\PycharmProjects\\untitled\\web2py\\gluon\\contrib\\pymysql\\cursors.py", line 322, in _query\n    conn.query(q)\n  File "C:\\Users\\hd\\PycharmProjects\\untitled\\web2py\\gluon\\contrib\\pymysql\\connections.py", line 835, in query\n    self._affected_rows = self._read_query_result(unbuffered=unbuffered)\n  File "C:\\Users\\hd\\PycharmProjects\\untitled\\web2py\\gluon\\contrib\\pymysql\\connections.py", line 1019, in _read_query_result\n    result.read()\n  File "C:\\Users\\hd\\PycharmProjects\\untitled\\web2py\\gluon\\contrib\\pymysql\\connections.py", line 1302, in read\n    first_packet = self.connection._read_packet()\n  File "C:\\Users\\hd\\PycharmProjects\\untitled\\web2py\\gluon\\contrib\\pymysql\\connections.py", line 981, in _read_packet\n    packet.check_error()\n  File "C:\\Users\\hd\\PycharmProjects\\untitled\\web2py\\gluon\\contrib\\pymysql\\connections.py", line 393, in check_error\n    err.raise_mysql_exception(self._data)\n  File "C:\\Users\\hd\\PycharmProjects\\untitled\\web2py\\gluon\\contrib\\pymysql\\err.py", line 107, in raise_mysql_exception\n    raise errorclass(errno, errval)\nInternalError: (1060, u"Duplicate column name \'os_version\'")\n'
p444
s.