(dp1
S'output'
p2
S"<type 'exceptions.AttributeError'> "
p3
sS'layer'
p4
S'C:\\Users\\hd\\PycharmProjects\\untitled\\web2py\\applications\\darkcloud1\\views\\default/subscriber.html'
p5
sS'code'
p6
S'response.write(\'<!DOCTYPE html>\\r\\n<!--[if (gt IE 9)|!(IE)]><!--> <html class="no-js" lang="\', escape=False)\nresponse.write(T.accepted_language or \'en\')\nresponse.write(\'"> <!--<![endif]-->\\r\\n  <head>\\r\\n    <meta charset="utf-8">\\r\\n    <meta http-equiv="X-UA-Compatible" content="IE=edge\', escape=False)\nresponse.write(not request.is_local and \',chrome=1\' or \'\')\nresponse.write(\'">\\r\\n    <meta name="viewport" content="width=device-width, initial-scale=1.0">\\r\\n    <title>\', escape=False)\nresponse.write(response.title or request.application)\nresponse.write(\'</title>\\r\\n    <meta name="application-name" content="\', escape=False)\nresponse.write(request.application)\nresponse.write(\'">\\r\\n    <meta name="google-site-verification" content="">\\r\\n\\r\\n<meta content="width=device-width, initial-scale=1, maximum-scale=1, user-scalable=no" name="viewport">\\r\\n\\r\\n      <!-- AdminLTE Skins. Choose a skin from the css/skins\\r\\n       folder instead of downloading all of them to reduce the load. -->\\r\\n  <link rel="stylesheet" href="\', escape=False)\nresponse.write(URL(\'static\',\'dist/css/skins/_all-skins.min.css\'))\nresponse.write(\'">\\r\\n  <!-- Morris chart -->\\r\\n  <link rel="stylesheet" href="\', escape=False)\nresponse.write(URL(\'static\',\'bower_components/morris.js/morris.css\'))\nresponse.write(\'">\\r\\n  <!-- jvectormap -->\\r\\n  <link rel="stylesheet" href="\', escape=False)\nresponse.write(URL(\'static\',\'bower_components/jvectormap/jquery-jvectormap.css\'))\nresponse.write(\'">\\r\\n  <!-- Date Picker -->\\r\\n  <link rel="stylesheet" href="\', escape=False)\nresponse.write(URL(\'static\',\'bower_components/bootstrap-datepicker/dist/css/bootstrap-datepicker.min.css\'))\nresponse.write(\'">\\r\\n  <!-- Daterange picker -->\\r\\n  <link rel="stylesheet" href="\', escape=False)\nresponse.write(URL(\'static\',\'bower_components/bootstrap-daterangepicker/daterangepicker.css\'))\nresponse.write(\'">\\r\\n  <!-- bootstrap wysihtml5 - text editor -->\\r\\n  <link rel="stylesheet" href="\', escape=False)\nresponse.write(URL(\'static\',\'plugins/bootstrap-wysihtml5/bootstrap3-wysihtml5.min.css\'))\nresponse.write(\'">\\r\\n\\r\\n      <!--Tasneem includes-->\\r\\n      <script type="text/javascript" src="scripts/jquery.js"></script>\\r\\n<!--[if lte IE 9]>\\r\\n<script src="scripts/IE9.js"></script>\\r\\n<![endif]-->\\r\\n      <script src="https://npmcdn.com/tether@1.2.4/dist/js/tether.min.js"></script>\\r\\n       <link rel="stylesheet" href="\', escape=False)\nresponse.write(URL(\'static\',\'bower_components/bootstrap/dist/css/bootstrap.min.css\'))\nresponse.write(\'"/>\\r\\n  <!-- Font Awesome -->\\r\\n      <link rel="stylesheet" href="\', escape=False)\nresponse.write(URL(\'static\',\'bower_components/font-awesome/css/font-awesome.min.css\'))\nresponse.write(\'"/>\\r\\n\\r\\n  <!-- Ionicons -->\\r\\n       <link rel="stylesheet" href="\', escape=False)\nresponse.write(URL(\'static\',\'bower_components/Ionicons/css/ionicons.min.css\'))\nresponse.write(\'"/>\\r\\n\\r\\n  <!-- Theme style -->\\r\\n       <link rel="stylesheet" href="\', escape=False)\nresponse.write(URL(\'static\',\'dist/css/AdminLTE.min.css\'))\nresponse.write(\'"/>\\r\\n  <!-- iCheck -->\\r\\n       <link rel="stylesheet" href="\', escape=False)\nresponse.write(URL(\'static\',\'plugins/iCheck/square/blue.css\'))\nresponse.write(\'"/>\\r\\n <link rel="stylesheet" href="https://fonts.googleapis.com/css?family=Source+Sans+Pro:300,400,600,700,300italic,400italic,600italic">\\r\\n\\r\\n<!----------------------------------------------->\\r\\n  </head>\\r\\n  <body class="hold-transition skin-blue sidebar-mini">\\r\\n  <!-- Navbar ======================================= -->\\r\\n    <!-- Main ========================================= -->\\r\\n    <!-- Begin page content -->\\r\\n    <div class="container-fluid main-container">\\r\\n        \', escape=False)\nresponse.write(\'\\r\\n<div class="wrapper" >\\r\\n\\r\\n  <header class="main-header">\\r\\n    <!-- Logo -->\\r\\n    <a href="#" class="logo">\\r\\n      <!-- mini logo for sidebar mini 50x50 pixels -->\\r\\n      <span class="logo-mini"><b>D</b>C</span>\\r\\n      <!-- logo for regular state and mobile devices -->\\r\\n        <img src="\', escape=False)\nresponse.write(URL(\'static\',\'images/DC.png\'))\nresponse.write(\'" style="width:60px;height:60px;float:left;">\\r\\n      <span class="logo-lg"><b>Dark</b>Cloud</span>\\r\\n    </a>\\r\\n    <!-- Header Navbar: style can be found in header.less -->\\r\\n    <nav class="navbar navbar-static-top">\\r\\n      <!-- Sidebar toggle button-->\\r\\n      <a href="#" class="sidebar-toggle" data-toggle="push-menu" role="button">\\r\\n        <span class="sr-only">Toggle navigation</span>\\r\\n      </a>\\r\\n\\r\\n      <div class="navbar-custom-menu">\\r\\n        <ul class="nav navbar-nav">\\r\\n\\r\\n          <!-- Notifications: style can be found in dropdown.less -->\\r\\n          <li class="dropdown notifications-menu">\\r\\n            <a href="#" class="dropdown-toggle" data-toggle="dropdown">\\r\\n              <i class="fa fa-bell-o"></i>\\r\\n              <span class="label label-warning">10</span>\\r\\n            </a>\\r\\n            <ul class="dropdown-menu">\\r\\n              <li class="header">You have 10 notifications</li>\\r\\n              <li>\\r\\n                <!-- inner menu: contains the actual data -->\\r\\n                <ul class="menu">\\r\\n                  <li>\\r\\n                    <a href="#">\\r\\n                      <i class="fa fa-users text-aqua"></i> 5 new members joined today\\r\\n                    </a>\\r\\n                  </li>\\r\\n                  <li>\\r\\n                    <a href="#">\\r\\n                      <i class="fa fa-warning text-yellow"></i> Very long description here that may not fit into the\\r\\n                      page and may cause design problems\\r\\n                    </a>\\r\\n                  </li>\\r\\n\\r\\n                </ul>\\r\\n              </li>\\r\\n              <li class="footer"><a href="#">View all</a></li>\\r\\n            </ul>\\r\\n          </li>\\r\\n\\r\\n\\r\\n\\r\\n          <!-- User Account: style can be found in dropdown.less -->\\r\\n          <li class="dropdown user user-menu">\\r\\n            <a href="#" class="dropdown-toggle" data-toggle="dropdown">\\r\\n                  <span class="hidden-xs">\', escape=False)\nresponse.write(user)\nresponse.write(\'</span>\\r\\n            </a>\\r\\n            <ul class="dropdown-menu">\\r\\n              <!-- User image -->\\r\\n              <li class="user-header">\\r\\n                <img src="\', escape=False)\nresponse.write(URL(\'static\',\'dist/img/u.jpg\'))\nresponse.write(\'" class="img-circle" alt="User Image">\\r\\n\\r\\n                <p>\\r\\n                 \', escape=False)\nresponse.write(user)\nresponse.write(\'\\r\\n                  <small>last online</small>\\r\\n                </p>\\r\\n              </li>\\r\\n\\r\\n              <!-- Menu Footer-->\\r\\n              <li class="user-footer">\\r\\n                <div class="pull-left">\\r\\n                  <a href="#" class="btn btn-default btn-flat">Profile</a>\\r\\n                </div>\\r\\n                <div class="pull-right">\\r\\n                  <a href="\', escape=False)\nresponse.write(URL(f=\'signout\'))\nresponse.write(\'" class="btn btn-default btn-flat">Sign out</a>\\r\\n                </div>\\r\\n              </li>\\r\\n            </ul>\\r\\n          </li>\\r\\n\\r\\n\\r\\n        </ul>\\r\\n      </div>\\r\\n    </nav>\\r\\n  </header>\\r\\n  <!-- Left side column. contains the logo and sidebar -->\\r\\n  <aside class="main-sidebar">\\r\\n    <!-- sidebar: style can be found in sidebar.less -->\\r\\n    <section class="sidebar">\\r\\n      <!-- Sidebar user panel -->\\r\\n      <div class="user-panel">\\r\\n         <div class="pull-left image">\\r\\n          <img src="\', escape=False)\nresponse.write(URL(\'static\',\'dist/img/u.jpg\'))\nresponse.write(\'" class="img-circle" alt="User Image">\\r\\n        </div>\\r\\n        <div class="pull-left info">\\r\\n          <p>\', escape=False)\nresponse.write(user)\nresponse.write(\'</p>\\r\\n          <a href="#"><i class="fa fa-circle text-success"></i> Online</a>\\r\\n        </div>\\r\\n      </div>\\r\\n      <!-- search form -->\\r\\n      <form action="#" method="get" class="sidebar-form">\\r\\n        <div class="input-group">\\r\\n          <input type="text" name="q" class="form-control" placeholder="Search...">\\r\\n          <span class="input-group-btn">\\r\\n                <button type="submit" name="search" id="search-btn" class="btn btn-flat"><i class="fa fa-search"></i>\\r\\n                </button>\\r\\n              </span>\\r\\n        </div>\\r\\n      </form>\\r\\n      <!-- /.search form -->\\r\\n      <!-- sidebar menu: : style can be found in sidebar.less -->\\r\\n      <ul class="sidebar-menu" data-widget="tree">\\r\\n        <li class="treeview">\\r\\n          <a href="">\\r\\n            <i class="fa  fa-users"></i>\\r\\n            <span>Endpoints</span>\\r\\n            <span class="pull-right-container">\\r\\n\\t\\t\\t <i class="fa fa-angle-left pull-right"></i>\\r\\n            </span>\\r\\n          </a>\\r\\n          <ul class="treeview-menu">\\r\\n            <li><a href="\', escape=False)\nresponse.write(URL(f=\'subscriber\',args=[\'add_endpoints\']))\nresponse.write(\'"><i class="fa fa-circle-o"></i> Add new endpoint</a></li>\\r\\n            <li><a href="\', escape=False)\nresponse.write(URL(f=\'subscriber\',args=[\'endpoints\']))\nresponse.write(\'"><i class="fa fa-circle-o"></i> View Current Endpoints</a></li>\\r\\n            <li><a href="\', escape=False)\nresponse.write(URL(f=\'subscriber\',args=[\'submissions\']))\nresponse.write(\'"><i class="fa fa-circle-o"></i> View Executables Submission</a></li>\\r\\n             </ul>\\r\\n        </li>\\r\\n           <li>\\r\\n          <a href="\', escape=False)\nresponse.write(URL(\'subscriber\',args=[\'sensors\']))\nresponse.write(\'">\\r\\n            <i class="fa  fa-cogs"></i>\\r\\n            <span>Sensors</span>\\r\\n               <li><a href="\', escape=False)\nresponse.write(URL(f=\'subscriber\',args=[\'add_sensors\']))\nresponse.write(\'" ><i class="fa fa-circle-o"></i> Add new Sensor</a></li>\\r\\n            <li><a href="\', escape=False)\nresponse.write(URL(f=\'subscriber\',args=[\'sensors\']))\nresponse.write(\'"><i class="fa fa-circle-o"></i> View Current Sensors</a></li>\\r\\n            <li><a href="\', escape=False)\nresponse.write(URL(f=\'subscriber\',args=[\'sensors_statistics\']))\nresponse.write(\'"><i class="fa fa-circle-o"></i> View Sensors Statistics</a></li>\\r\\n\\r\\n          </a>\\r\\n               <a href="\', escape=False)\nresponse.write(URL(\'subscriber\',args=[\'query\']))\nresponse.write(\'">\\r\\n            <i class="fa  fa-bar-chart-o"></i>\\r\\n            <span>Query</span>\\r\\n                    <li><a href="\', escape=False)\nresponse.write(URL(f=\'subscriber\',vars=dict(showtable=1),args=[\'query\']))\nresponse.write(\'"><i class="fa fa-circle-o"></i> Search with hashes</a></li>\\r\\n          </a>\\r\\n\\r\\n           <a href="\', escape=False)\nresponse.write(URL(\'subscriber\',args=[\'events\']))\nresponse.write(\'">\\r\\n            <i class="fa  fa-bar-chart-o"></i>\\r\\n            <span>Events</span>\\r\\n               </a>\\r\\n        </li>\\r\\n      </ul>\\r\\n    </section>\\r\\n    <!-- /.sidebar -->\\r\\n  </aside>\\r\\n  <!-- Content Wrapper. Contains page content -->\\r\\n  <div class="content-wrapper">\\r\\n    <!-- Content Header (Page header) -->\\r\\n    <section class="content-header">\\r\\n      <h1>\\r\\n        All \', escape=False)\nresponse.write(usertype)\nresponse.write(\'\\r\\n        <small>View and Edit</small>\\r\\n      </h1>\\r\\n        <!--user view for user management-->\\r\\n\\r\\n         <ol class="breadcrumb">\\r\\n        <li><a href="#" ><i class="fa fa-dashboard"></i> Home</a></li>\\r\\n        <li class="active">\', escape=False)\nresponse.write(usertype)\nresponse.write(\'</li>\\r\\n      </ol>\\r\\n    </section>\\r\\n <div class="box-header">\\r\\n            <!--  <span class="pull-right-container" style="float:right;">\\r\\n                 <a href="#" id="add3"> <i class="fa fa-plus">Add</i></a>\\r\\n              </span>-->\\r\\n                </div>\\r\\n\\r\\n        \', escape=False)\nif session[\'action\']==\'add_sensors\' or session[\'action\']==\'add_endpoints\':\n    response.write(\'\\r\\n             <div id="add" class="tab-pane" style="display:none;">\\r\\n                     <span class="close">&times;</span>\\r\\n                  \', escape=False)\n    response.write(form)\n    response.write(\'\\r\\n                </div>\\r\\n    \', escape=False)\n    pass\nresponse.write(\'\\r\\n    <!-- Main content -->\\r\\n    <section class="content">\\r\\n      <div class="row">\\r\\n        <div class="col-xs-12">\\r\\n          <div class="box">\\r\\n\\r\\n            \', escape=False)\nif session[\'action\']==\'sensors\' or session[\'action\']==\'endpoints\':\n    response.write(\'\\r\\n                <div class="box-body" id="sensors" style="display: block;">\\r\\n              <table id="example2" class="table table-bordered table-hover">\\r\\n                <thead>\\r\\n                <tr>\\r\\n                  <th>IP</th>\\r\\n                  <th>Owner ID</th>\\r\\n                    \', escape=False)\n    if session[\'action\']==\'endpoints\':\n        response.write(\'\\r\\n                    <th>OS version</th>\\r\\n                  \', escape=False)\n        pass\n    response.write(\'\\r\\n                  <th>Enrollement Timestamp</th>\\r\\n                  <th>Enrolled Flag</th>\\r\\n                </tr>\\r\\n                </thead>\\r\\n                <tbody>\\r\\n                \', escape=False)\n    for row in devicestemp:\n        response.write(\'\\r\\n                <tr>\\r\\n                  <td>\', escape=False)\n        response.write(row.ip)\n        response.write(\'</td>\\r\\n                  <td>\\r\\n                  \', escape=False)\n        response.write(row.owner_ID)\n        response.write(\'\\r\\n                  </td>\\r\\n                    \', escape=False)\n        if session[\'action\']==\'endpoints\':\n            response.write(\'\\r\\n                  <td>\', escape=False)\n            response.write(row.os_version)\n            response.write(\'</td>\\r\\n                    \', escape=False)\n            pass\n        response.write(\'\\r\\n                  <td>\', escape=False)\n        response.write(row.enrollement_timestamp)\n        response.write(\'</td>\\r\\n                  <td> \', escape=False)\n        response.write(row.enrolled_flag)\n        response.write(\'\\r\\n                  <span style="float:right;">\\r\\n                 <a href="\', escape=False)\n        response.write(URL(f=\'subscriber\',vars={\'deletid\':row.id},args=[\'device\']))\n        response.write(\'"> <i class="fa fa-minus-square" style="color:red;"></i></a>\\r\\n                  </span></td>\\r\\n                     </tr>\\r\\n                    \', escape=False)\n        pass\n    response.write(\'\\r\\n\\r\\n          </tbody></table>  </div>\\r\\n\\r\\n                \', escape=False)\nelif session[\'action\']==\'submissions\':\n    response.write(\'\\r\\n                <div class="box-body" id="submission" style="display: block;">\\r\\n              <table id="example2" class="table table-bordered table-hover">\\r\\n                <thead>\\r\\n                <tr>\\r\\n                  <th>Submitter</th>\\r\\n                  <th>Type</th>\\r\\n                    <th>File hash</th>\\r\\n                    <th>Timestamp</th>\\r\\n                  <th>Domain</th>\\r\\n                    <th>source</th>\\r\\n                    <th>destination</th>\\r\\n                    <th>protocol</th>\\r\\n\\r\\n                </tr>\\r\\n                </thead>\\r\\n                <tbody>\\r\\n                \', escape=False)\n    for row in devicestemp:\n        response.write(\'\\r\\n                <tr>\\r\\n                  <td>\', escape=False)\n        response.write(row.submitter_id)\n        response.write(\'</td>\\r\\n                  <td>\\r\\n                  \', escape=False)\n        response.write(row.submitter_type)\n        response.write(\'\\r\\n                  </td>\\r\\n                  <td>\', escape=False)\n        response.write(row.submitted_filehash)\n        response.write(\'</td>\\r\\n\\r\\n                  <td>\', escape=False)\n        response.write(row.submitted_timestamp)\n        response.write(\'</td>\\r\\n                    <td> \', escape=False)\n        response.write(row.submitted_domain)\n        response.write(\'</td>\\r\\n\\r\\n                    \', escape=False)\n        if row.submitted_domain==\'mail\':\n            response.write(\'\\r\\n                    <td> \', escape=False)\n            response.write(row.sent_to)\n            response.write(\'</td>\\r\\n                    <td> \', escape=False)\n            response.write(row.sent_from)\n            response.write(\'</td>\\r\\n                    \', escape=False)\n        elif row.submitted_domain==\'web\':\n            response.write(\'\\r\\n                    <td> \', escape=False)\n            response.write(row.src_address)\n            response.write(\'</td>\\r\\n                    <td> \', escape=False)\n            response.write(row.dst_address)\n            response.write(\'</td>\\r\\n                    \', escape=False)\n            pass\n        response.write(\'\\r\\n                  <td> \', escape=False)\n        response.write(row.protocol)\n        response.write(\'</td>\\r\\n                     </tr>\\r\\n                    \', escape=False)\n        pass\n    response.write(\'\\r\\n          </tbody></table>  </div></div>\\r\\n                <!-- /.box-header -->\\r\\n        </div></div></section></div></div>\\r\\n\\r\\n       \', escape=False)\nelif session[\'action\']==\'sensors_statistics\':\n    response.write(\'\\r\\n      <div class="box box-primary">\\r\\n            <div class="box-header with-border">\\r\\n              <i class="fa fa-bar-chart-o"></i>\\r\\n              <h3 class="box-title">Sensors Statistics</h3>\\r\\n              <div class="box-tools pull-right">\\r\\n                <button type="button" class="btn btn-box-tool" data-widget="collapse"><i class="fa fa-minus"></i>\\r\\n                </button>\\r\\n                <button type="button" class="btn btn-box-tool" data-widget="remove"><i class="fa fa-times"></i></button>\\r\\n              </div>\\r\\n            </div>\\r\\n            <div class="box-body">\\r\\n              <div id="donut-chart" style="height: 300px;"></div>\\r\\n            </div>\\r\\n            <!-- /.box-body-->\\r\\n          </div>\\r\\n        \', escape=False)\n    pass\nresponse.write(\'\\r\\n        </div></div>\\r\\n\\r\\n<script src="http://ajax.aspnetcdn.com/ajax/jquery/jquery-1.9.1.min.js" type="text/javascript" language="javascript"></script>\\r\\n\\r\\n <script>\\r\\n var modal = document.getElementById(\\\'add\\\');\\r\\n// var modal1 = document.getElementById(\\\'addModal1\\\');\\r\\nvar content=document.getElementById(\\\'contentModal\\\');\\r\\n// Get the button that opens the modal\\r\\nvar btn = document.getElementById("addendpoint");\\r\\nvar btn1 = document.getElementById("addsensor");\\r\\n\\r\\n \', escape=False)\nif session[\'action\']==\'add_sensors\' or session[\'action\']==\'add_endpoints\':\n    response.write(\'\\r\\n  modal.style.display = "block";\\r\\n \', escape=False)\n    pass\nresponse.write(\'\\r\\n// Get the <span> element that closes the modal\\r\\nvar span = document.getElementsByClassName("close")[0];\\r\\n// When the user clicks on the button, open the modal\\r\\n\\r\\n    btn.onclick = function() {\\r\\n        modal.style.display = "block";\\r\\n    }\\r\\n    btn1.onclick = function() {\\r\\n        modal.style.display = "block";\\r\\n    }\\r\\nspan.onclick = function() {\\r\\n    modal.style.display = "none";\\r\\n\\r\\n}\\r\\n// When the user clicks on <span> (x), close the modal\\r\\n\\r\\n\\r\\n// When the user clicks anywhere outside of the modal, close it\\r\\n\\r\\n\\r\\n\\r\\n<!-- Page script -->\\r\\n  $(function () {\\r\\n    /*\\r\\n     * Flot Interactive Chart\\r\\n     * -----------------------\\r\\n     */\\r\\n    // We use an inline data source in the example, usually data would\\r\\n    // be fetched from a server\\r\\n    var data = [], totalPoints = 100\\r\\n\\r\\n    function getRandomData() {\\r\\n\\r\\n      if (data.length > 0)\\r\\n        data = data.slice(1)\\r\\n\\r\\n      // Do a random walk\\r\\n      while (data.length < totalPoints) {\\r\\n\\r\\n        var prev = data.length > 0 ? data[data.length - 1] : 50,\\r\\n            y    = prev + Math.random() * 10 - 5\\r\\n\\r\\n        if (y < 0) {\\r\\n          y = 0\\r\\n        } else if (y > 100) {\\r\\n          y = 100\\r\\n        }\\r\\n\\r\\n        data.push(y)\\r\\n      }\\r\\n\\r\\n      // Zip the generated y values with the x values\\r\\n      var res = []\\r\\n      for (var i = 0; i < data.length; ++i) {\\r\\n        res.push([i, data[i]])\\r\\n      }\\r\\n\\r\\n      return res\\r\\n    }\\r\\n\\r\\n    var interactive_plot = $.plot(\\\'#interactive\\\', [getRandomData()], {\\r\\n      grid  : {\\r\\n        borderColor: \\\'#f3f3f3\\\',\\r\\n        borderWidth: 1,\\r\\n        tickColor  : \\\'#f3f3f3\\\'\\r\\n      },\\r\\n      series: {\\r\\n        shadowSize: 0, // Drawing is faster without shadows\\r\\n        color     : \\\'#3c8dbc\\\'\\r\\n      },\\r\\n      lines : {\\r\\n        fill : true, //Converts the line chart to area chart\\r\\n        color: \\\'#3c8dbc\\\'\\r\\n      },\\r\\n      yaxis : {\\r\\n        min : 0,\\r\\n        max : 100,\\r\\n        show: true\\r\\n      },\\r\\n      xaxis : {\\r\\n        show: true\\r\\n      }\\r\\n    })\\r\\n\\r\\n    var updateInterval = 500 //Fetch data ever x milliseconds\\r\\n    var realtime       = \\\'on\\\' //If == to on then fetch data every x seconds. else stop fetching\\r\\n    function update() {\\r\\n\\r\\n      interactive_plot.setData([getRandomData()])\\r\\n\\r\\n      // Since the axes don\\\'t change, we don\\\'t need to call plot.setupGrid()\\r\\n      interactive_plot.draw()\\r\\n      if (realtime === \\\'on\\\')\\r\\n        setTimeout(update, updateInterval)\\r\\n    }\\r\\n\\r\\n    //INITIALIZE REALTIME DATA FETCHING\\r\\n    if (realtime === \\\'on\\\') {\\r\\n      update()\\r\\n    }\\r\\n    //REALTIME TOGGLE\\r\\n    $(\\\'#realtime .btn\\\').click(function () {\\r\\n      if ($(this).data(\\\'toggle\\\') === \\\'on\\\') {\\r\\n        realtime = \\\'on\\\'\\r\\n      }\\r\\n      else {\\r\\n        realtime = \\\'off\\\'\\r\\n      }\\r\\n      update()\\r\\n    })\\r\\n    /*\\r\\n     * END INTERACTIVE CHART\\r\\n     */\\r\\n\\r\\n    /*\\r\\n     * LINE CHART\\r\\n     * ----------\\r\\n     */\\r\\n    //LINE randomly generated data\\r\\n\\r\\n    var sin = [], cos = []\\r\\n    for (var i = 0; i < 14; i += 0.5) {\\r\\n      sin.push([i, Math.sin(i)])\\r\\n      cos.push([i, Math.cos(i)])\\r\\n    }\\r\\n    var line_data1 = {\\r\\n      data : sin,\\r\\n      color: \\\'#3c8dbc\\\'\\r\\n    }\\r\\n    var line_data2 = {\\r\\n      data : cos,\\r\\n      color: \\\'#00c0ef\\\'\\r\\n    }\\r\\n    $.plot(\\\'#line-chart\\\', [line_data1, line_data2], {\\r\\n      grid  : {\\r\\n        hoverable  : true,\\r\\n        borderColor: \\\'#f3f3f3\\\',\\r\\n        borderWidth: 1,\\r\\n        tickColor  : \\\'#f3f3f3\\\'\\r\\n      },\\r\\n      series: {\\r\\n        shadowSize: 0,\\r\\n        lines     : {\\r\\n          show: true\\r\\n        },\\r\\n        points    : {\\r\\n          show: true\\r\\n        }\\r\\n      },\\r\\n      lines : {\\r\\n        fill : false,\\r\\n        color: [\\\'#3c8dbc\\\', \\\'#f56954\\\']\\r\\n      },\\r\\n      yaxis : {\\r\\n        show: true\\r\\n      },\\r\\n      xaxis : {\\r\\n        show: true\\r\\n      }\\r\\n    })\\r\\n    //Initialize tooltip on hover\\r\\n    $(\\\'<div class="tooltip-inner" id="line-chart-tooltip"></div>\\\').css({\\r\\n      position: \\\'absolute\\\',\\r\\n      display : \\\'none\\\',\\r\\n      opacity : 0.8\\r\\n    }).appendTo(\\\'body\\\')\\r\\n    $(\\\'#line-chart\\\').bind(\\\'plothover\\\', function (event, pos, item) {\\r\\n\\r\\n      if (item) {\\r\\n        var x = item.datapoint[0].toFixed(2),\\r\\n            y = item.datapoint[1].toFixed(2)\\r\\n\\r\\n        $(\\\'#line-chart-tooltip\\\').html(item.series.label + \\\' of \\\' + x + \\\' = \\\' + y)\\r\\n          .css({ top: item.pageY + 5, left: item.pageX + 5 })\\r\\n          .fadeIn(200)\\r\\n      } else {\\r\\n        $(\\\'#line-chart-tooltip\\\').hide()\\r\\n      }\\r\\n\\r\\n    })\\r\\n    /* END LINE CHART */\\r\\n\\r\\n    /*\\r\\n     * FULL WIDTH STATIC AREA CHART\\r\\n     * -----------------\\r\\n     */\\r\\n    var areaData = [[2, 88.0], [3, 93.3], [4, 102.0], [5, 108.5], [6, 115.7], [7, 115.6],\\r\\n      [8, 124.6], [9, 130.3], [10, 134.3], [11, 141.4], [12, 146.5], [13, 151.7], [14, 159.9],\\r\\n      [15, 165.4], [16, 167.8], [17, 168.7], [18, 169.5], [19, 168.0]]\\r\\n    $.plot(\\\'#area-chart\\\', [areaData], {\\r\\n      grid  : {\\r\\n        borderWidth: 0\\r\\n      },\\r\\n      series: {\\r\\n        shadowSize: 0, // Drawing is faster without shadows\\r\\n        color     : \\\'#00c0ef\\\'\\r\\n      },\\r\\n      lines : {\\r\\n        fill: true //Converts the line chart to area chart\\r\\n      },\\r\\n      yaxis : {\\r\\n        show: false\\r\\n      },\\r\\n      xaxis : {\\r\\n        show: false\\r\\n      }\\r\\n    })\\r\\n\\r\\n    /* END AREA CHART */\\r\\n\\r\\n    /*\\r\\n     * BAR CHART\\r\\n     * ---------\\r\\n     */\\r\\n\\r\\n    var bar_data = {\\r\\n      data : [[\\\'January\\\', 10], [\\\'February\\\', 8], [\\\'March\\\', 4], [\\\'April\\\', 13], [\\\'May\\\', 17], [\\\'June\\\', 9]],\\r\\n      color: \\\'#3c8dbc\\\'\\r\\n    }\\r\\n    $.plot(\\\'#bar-chart\\\', [bar_data], {\\r\\n      grid  : {\\r\\n        borderWidth: 1,\\r\\n        borderColor: \\\'#f3f3f3\\\',\\r\\n        tickColor  : \\\'#f3f3f3\\\'\\r\\n      },\\r\\n      series: {\\r\\n        bars: {\\r\\n          show    : true,\\r\\n          barWidth: 0.5,\\r\\n          align   : \\\'center\\\'\\r\\n        }\\r\\n      },\\r\\n      xaxis : {\\r\\n        mode      : \\\'categories\\\',\\r\\n        tickLength: 0\\r\\n      }\\r\\n    })\\r\\n    /* END BAR CHART */\\r\\n\\r\\n    /*\\r\\n     * DONUT CHART\\r\\n     * -----------\\r\\n     */\\r\\n\\r\\n    var donutData = [\\r\\n      { label: \\\'Sensors\\\', data: \', escape=False)\nresponse.write(session[\'avgsensors\'])\nresponse.write(", color: \'#3c8dbc\' },\\r\\n      { label: \'Endpoint Agents\', data: ", escape=False)\nresponse.write(session[\'avgendpoints\'])\nresponse.write(\', color: \\\'#0073b7\\\' },\\r\\n    ]\\r\\n    $.plot(\\\'#donut-chart\\\', donutData, {\\r\\n      series: {\\r\\n        pie: {\\r\\n          show       : true,\\r\\n          radius     : 1,\\r\\n          innerRadius: 0.5,\\r\\n          label      : {\\r\\n            show     : true,\\r\\n            radius   : 2 / 3,\\r\\n            formatter: labelFormatter,\\r\\n            threshold: 0.1\\r\\n          }\\r\\n\\r\\n        }\\r\\n      },\\r\\n      legend: {\\r\\n        show: false\\r\\n      }\\r\\n    })\\r\\n    /*\\r\\n     * END DONUT CHART\\r\\n     */\\r\\n\\r\\n  })\\r\\n\\r\\n  /*\\r\\n   * Custom Label formatter\\r\\n   * ----------------------\\r\\n   */\\r\\n  function labelFormatter(label, series) {\\r\\n    return \\\'<div style="font-size:13px; text-align:center; padding:2px; color: #fff; font-weight: 600;">\\\'\\r\\n      + label\\r\\n      + \\\'<br>\\\'\\r\\n      + Math.round(series.percent) + \\\'%</div>\\\'\\r\\n  }\\r\\n\\r\\n</script>\\r\\n\\r\\n\', escape=False)\nresponse.write(\'\\r\\n    </div>\\r\\n\\r\\n    <!-- Share ============================y============ -->\\r\\n    <script src="\', escape=False)\nresponse.write(URL(\'static\',\'js/share.js\',vars=dict(static=URL(\'static\',\'images\'))))\nresponse.write(\'"></script>\\r\\n  <!-- jQuery 3 -->\\r\\n<script src="\', escape=False)\nresponse.write(URL(\'static\',\'bower_components/jquery/dist/jquery.min.js\'))\nresponse.write(\'">\\r\\n</script>\\r\\n<!-- Bootstrap 3.3.7 -->\\r\\n<script src="\', escape=False)\nresponse.write(URL(\'static\',\'bower_components/bootstrap/dist/js/bootstrap.min.js\'))\nresponse.write(\'"></script>\\r\\n<!-- iCheck -->\\r\\n<script src="\', escape=False)\nresponse.write(URL(\'static\',\'plugins/iCheck/icheck.min.js\'))\nresponse.write(\'"></script>\\r\\n\\r\\n<!-- jQuery UI 1.11.4 -->\\r\\n<script src="\', escape=False)\nresponse.write(URL(\'static\',\'bower_components/jquery-ui/jquery-ui.min.js\'))\nresponse.write(\'"></script>\\r\\n<!-- Resolve conflict in jQuery UI tooltip with Bootstrap tooltip -->\\r\\n<script>\\r\\n  $.widget.bridge(\\\'uibutton\\\', $.ui.button);\\r\\n</script>\\r\\n\\r\\n<!-- Morris.js charts -->\\r\\n<script src="\', escape=False)\nresponse.write(URL(\'static\',\'bower_components/raphael/raphael.min.js\'))\nresponse.write(\'"></script>\\r\\n<script src="\', escape=False)\nresponse.write(URL(\'static\',\'bower_components/morris.js/morris.min.js\'))\nresponse.write(\'"></script>\\r\\n<!-- Sparkline -->\\r\\n<script src="\', escape=False)\nresponse.write(URL(\'static\',\'bower_components/jquery-sparkline/dist/jquery.sparkline.min.js\'))\nresponse.write(\'"></script>\\r\\n<!-- jvectormap -->\\r\\n<script src="\', escape=False)\nresponse.write(URL(\'static\',\'plugins/jvectormap/jquery-jvectormap-1.2.2.min.js\'))\nresponse.write(\'"></script>\\r\\n<script src="\', escape=False)\nresponse.write(URL(\'static\',\'plugins/jvectormap/jquery-jvectormap-world-mill-en.js\'))\nresponse.write(\'"></script>\\r\\n<!-- jQuery Knob Chart -->\\r\\n<script src="\', escape=False)\nresponse.write(URL(\'static\',\'bower_components/jquery-knob/dist/jquery.knob.min.js\'))\nresponse.write(\'"></script>\\r\\n<!-- daterangepicker -->\\r\\n<script src="\', escape=False)\nresponse.write(URL(\'static\',\'bower_components/moment/min/moment.min.js\'))\nresponse.write(\'"></script>\\r\\n<script src="\', escape=False)\nresponse.write(URL(\'static\',\'bower_components/bootstrap-daterangepicker/daterangepicker.js\'))\nresponse.write(\'"></script>\\r\\n<!-- datepicker -->\\r\\n<script src="\', escape=False)\nresponse.write(URL(\'static\',\'bower_components/bootstrap-datepicker/dist/js/bootstrap-datepicker.min.js\'))\nresponse.write(\'"></script>\\r\\n<!-- Bootstrap WYSIHTML5 -->\\r\\n<script src="\', escape=False)\nresponse.write(URL(\'static\',\'plugins/bootstrap-wysihtml5/bootstrap3-wysihtml5.all.min.js\'))\nresponse.write(\'"></script>\\r\\n<!-- Slimscroll -->\\r\\n<script src="\', escape=False)\nresponse.write(URL(\'static\',\'bower_components/jquery-slimscroll/jquery.slimscroll.min.js\'))\nresponse.write(\'"></script>\\r\\n<!-- FastClick -->\\r\\n<script src="\', escape=False)\nresponse.write(URL(\'static\',\'bower_components/fastclick/lib/fastclick.js\'))\nresponse.write(\'"></script>\\r\\n<!-- AdminLTE App -->\\r\\n<script src="\', escape=False)\nresponse.write(URL(\'static\',\'dist/js/adminlte.min.js\'))\nresponse.write(\'"></script>\\r\\n<!-- AdminLTE dashboard demo (This is only for demo purposes) -->\\r\\n<script src="\', escape=False)\nresponse.write(URL(\'static\',\'dist/js/pages/dashboard.js\'))\nresponse.write(\'"></script>\\r\\n<!-- AdminLTE for demo purposes -->\\r\\n<script src="\', escape=False)\nresponse.write(URL(\'static\',\'dist/js/demo.js\'))\nresponse.write(\'"></script>\\r\\n\\r\\n\\r\\n\\r\\n  <!-- FLOT CHARTS -->\\r\\n<script src="\', escape=False)\nresponse.write(URL(\'static\',\'bower_components/Flot/jquery.flot.js\'))\nresponse.write(\'"></script>\\r\\n<!-- FLOT RESIZE PLUGIN - allows the chart to redraw when the window is resized -->\\r\\n<script src="\', escape=False)\nresponse.write(URL(\'static\',\'bower_components/Flot/jquery.flot.resize.js\'))\nresponse.write(\'"></script>\\r\\n<!-- FLOT PIE PLUGIN - also used to draw donut charts -->\\r\\n<script src="\', escape=False)\nresponse.write(URL(\'static\',\'bower_components/Flot/jquery.flot.pie.js\'))\nresponse.write(\'"></script>\\r\\n<!-- FLOT CATEGORIES PLUGIN - Used to draw bar charts -->\\r\\n<script src="\', escape=False)\nresponse.write(URL(\'static\',\'bower_components/Flot/jquery.flot.categories.js\'))\nresponse.write(\'"></script>\\r\\n\\r\\n\\r\\n\\r\\n\\r\\n  </body>\\r\\n</html>\\r\\n\', escape=False)'
p7
sS'snapshot'
p8
(dp9
S'exception'
p10
(dp11
S'__getslice__'
p12
S"<method-wrapper '__getslice__' of exceptions.AttributeError object>"
p13
sS'__str__'
p14
S"<method-wrapper '__str__' of exceptions.AttributeError object>"
p15
sS'__reduce__'
p16
S'<built-in method __reduce__ of exceptions.AttributeError object>'
p17
sS'__dict__'
p18
S'{}'
p19
sS'message'
p20
S"''"
p21
sS'__sizeof__'
p22
S'<built-in method __sizeof__ of exceptions.AttributeError object>'
p23
sS'__init__'
p24
S"<method-wrapper '__init__' of exceptions.AttributeError object>"
p25
sS'__setattr__'
p26
S"<method-wrapper '__setattr__' of exceptions.AttributeError object>"
p27
sS'__reduce_ex__'
p28
S'<built-in method __reduce_ex__ of exceptions.AttributeError object>'
p29
sS'__new__'
p30
S'<built-in method __new__ of type object>'
p31
sS'__format__'
p32
S'<built-in method __format__ of exceptions.AttributeError object>'
p33
sS'__class__'
p34
S"<type 'exceptions.AttributeError'>"
p35
sS'__doc__'
p36
S"'Attribute not found.'"
p37
sS'__getitem__'
p38
S"<method-wrapper '__getitem__' of exceptions.AttributeError object>"
p39
sS'__setstate__'
p40
S'<built-in method __setstate__ of exceptions.AttributeError object>'
p41
sS'__getattribute__'
p42
S"<method-wrapper '__getattribute__' of exceptions.AttributeError object>"
p43
sS'args'
p44
S'()'
p45
sS'__subclasshook__'
p46
S'<built-in method __subclasshook__ of type object>'
p47
sS'__unicode__'
p48
S'<built-in method __unicode__ of exceptions.AttributeError object>'
p49
sS'__delattr__'
p50
S"<method-wrapper '__delattr__' of exceptions.AttributeError object>"
p51
sS'__repr__'
p52
S"<method-wrapper '__repr__' of exceptions.AttributeError object>"
p53
sS'__hash__'
p54
S"<method-wrapper '__hash__' of exceptions.AttributeError object>"
p55
ssS'evalue'
p56
S''
sS'request'
p57
cgluon.html
XML_unpickle
p58
(S's\x80`\x00\x00<div><table><tr><td style="font-weight:bold;vertical-align:top;">ajax</td><td style="vertical-align:top;">:</td><td><div>False</div></td></tr><tr><td style="font-weight:bold;vertical-align:top;">application</td><td style="vertical-align:top;">:</td><td><div>darkcloud1</div></td></tr><tr><td style="font-weight:bold;vertical-align:top;">args</td><td style="vertical-align:top;">:</td><td><div><table><tr><td><div>endpoints</div></td></tr></table></div></td></tr><tr><td style="font-weight:bold;vertical-align:top;">cid</td><td style="vertical-align:top;">:</td><td><div>None</div></td></tr><tr><td style="font-weight:bold;vertical-align:top;">client</td><td style="vertical-align:top;">:</td><td><div>127.0.0.1</div></td></tr><tr><td style="font-weight:bold;vertical-align:top;">controller</td><td style="vertical-align:top;">:</td><td><div>default</div></td></tr><tr><td style="font-weight:bold;vertical-align:top;">cookies</td><td style="vertical-align:top;">:</td><td><div><table><tr><td style="font-weight:bold;vertical-align:top;">session_id_admin</td><td style="vertical-align:top;">:</td><td><div>127.0.0.1-bcf2fbd0-ee5b-49d8-9a49-31bfcb1c26e0<table><tr><td style="font-weight:bold;vertical-align:top;">comment</td><td style="vertical-align:top;">:</td><td><div></div></td></tr><tr><td style="font-weight:bold;vertical-align:top;">domain</td><td style="vertical-align:top;">:</td><td><div></div></td></tr><tr><td style="font-weight:bold;vertical-align:top;">expires</td><td style="vertical-align:top;">:</td><td><div></div></td></tr><tr><td style="font-weight:bold;vertical-align:top;">httponly</td><td style="vertical-align:top;">:</td><td><div></div></td></tr><tr><td style="font-weight:bold;vertical-align:top;">max-age</td><td style="vertical-align:top;">:</td><td><div></div></td></tr><tr><td style="font-weight:bold;vertical-align:top;">path</td><td style="vertical-align:top;">:</td><td><div></div></td></tr><tr><td style="font-weight:bold;vertical-align:top;">secure</td><td style="vertical-align:top;">:</td><td><div></div></td></tr><tr><td style="font-weight:bold;vertical-align:top;">version</td><td style="vertical-align:top;">:</td><td><div></div></td></tr></table></div></td></tr><tr><td style="font-weight:bold;vertical-align:top;">session_id_darkcloud1</td><td style="vertical-align:top;">:</td><td><div>127.0.0.1-7eecb705-f1a9-426f-ae22-88e750fb5cfa<table><tr><td style="font-weight:bold;vertical-align:top;">comment</td><td style="vertical-align:top;">:</td><td><div></div></td></tr><tr><td style="font-weight:bold;vertical-align:top;">domain</td><td style="vertical-align:top;">:</td><td><div></div></td></tr><tr><td style="font-weight:bold;vertical-align:top;">expires</td><td style="vertical-align:top;">:</td><td><div></div></td></tr><tr><td style="font-weight:bold;vertical-align:top;">httponly</td><td style="vertical-align:top;">:</td><td><div></div></td></tr><tr><td style="font-weight:bold;vertical-align:top;">max-age</td><td style="vertical-align:top;">:</td><td><div></div></td></tr><tr><td style="font-weight:bold;vertical-align:top;">path</td><td style="vertical-align:top;">:</td><td><div></div></td></tr><tr><td style="font-weight:bold;vertical-align:top;">secure</td><td style="vertical-align:top;">:</td><td><div></div></td></tr><tr><td style="font-weight:bold;vertical-align:top;">version</td><td style="vertical-align:top;">:</td><td><div></div></td></tr></table></div></td></tr><tr><td style="font-weight:bold;vertical-align:top;">session_id_welcome</td><td style="vertical-align:top;">:</td><td><div>127.0.0.1-ab6ea133-1347-4ade-94bf-d558af51c690<table><tr><td style="font-weight:bold;vertical-align:top;">comment</td><td style="vertical-align:top;">:</td><td><div></div></td></tr><tr><td style="font-weight:bold;vertical-align:top;">domain</td><td style="vertical-align:top;">:</td><td><div></div></td></tr><tr><td style="font-weight:bold;vertical-align:top;">expires</td><td style="vertical-align:top;">:</td><td><div></div></td></tr><tr><td style="font-weight:bold;vertical-align:top;">httponly</td><td style="vertical-align:top;">:</td><td><div></div></td></tr><tr><td style="font-weight:bold;vertical-align:top;">max-age</td><td style="vertical-align:top;">:</td><td><div></div></td></tr><tr><td style="font-weight:bold;vertical-align:top;">path</td><td style="vertical-align:top;">:</td><td><div></div></td></tr><tr><td style="font-weight:bold;vertical-align:top;">secure</td><td style="vertical-align:top;">:</td><td><div></div></td></tr><tr><td style="font-weight:bold;vertical-align:top;">version</td><td style="vertical-align:top;">:</td><td><div></div></td></tr></table></div></td></tr></table></div></td></tr><tr><td style="font-weight:bold;vertical-align:top;">env</td><td style="vertical-align:top;">:</td><td><div><table><tr><td style="font-weight:bold;vertical-align:top;">HTTP_ACCEPT</td><td style="vertical-align:top;">:</td><td><div>text/html, application/xhtml+xml, image/jxr, */*</div></td></tr><tr><td style="font-weight:bold;vertical-align:top;">HTTP_ACCEPT_ENCODING</td><td style="vertical-align:top;">:</td><td><div>gzip, deflate</div></td></tr><tr><td style="font-weight:bold;vertical-align:top;">HTTP_ACCEPT_LANGUAGE</td><td style="vertical-align:top;">:</td><td><div>en-US</div></td></tr><tr><td style="font-weight:bold;vertical-align:top;">HTTP_CONNECTION</td><td style="vertical-align:top;">:</td><td><div>Keep-Alive</div></td></tr><tr><td style="font-weight:bold;vertical-align:top;">HTTP_COOKIE</td><td style="vertical-align:top;">:</td><td><div>session_id_welcome=127.0.0.1-ab6ea133-1347-4ade-94bf-d558af51c690; session_id_admin=127.0.0.1-bcf2fbd0-ee5b-49d8-9a49-31bfcb1c26e0; session_id_darkcloud1=127.0.0.1-7eecb705-f1a9-426f-ae22-88e750fb5cfa</div></td></tr><tr><td style="font-weight:bold;vertical-align:top;">HTTP_HOST</td><td style="vertical-align:top;">:</td><td><div>127.0.0.1:8000</div></td></tr><tr><td style="font-weight:bold;vertical-align:top;">HTTP_REFERER</td><td style="vertical-align:top;">:</td><td><div>http://127.0.0.1:8000/darkcloud1/default/subscriber/add_sensors</div></td></tr><tr><td style="font-weight:bold;vertical-align:top;">HTTP_USER_AGENT</td><td style="vertical-align:top;">:</td><td><div>Mozilla/5.0 (Windows NT 10.0; Win64; x64) AppleWebKit/537.36 (KHTML, like Gecko) Chrome/58.0.3029.110 Safari/537.36 Edge/16.16299</div></td></tr><tr><td style="font-weight:bold;vertical-align:top;">PATH_INFO</td><td style="vertical-align:top;">:</td><td><div>/darkcloud1/default/subscriber/endpoints</div></td></tr><tr><td style="font-weight:bold;vertical-align:top;">QUERY_STRING</td><td style="vertical-align:top;">:</td><td><div></div></td></tr><tr><td style="font-weight:bold;vertical-align:top;">REMOTE_ADDR</td><td style="vertical-align:top;">:</td><td><div>127.0.0.1</div></td></tr><tr><td style="font-weight:bold;vertical-align:top;">REMOTE_PORT</td><td style="vertical-align:top;">:</td><td><div>49870</div></td></tr><tr><td style="font-weight:bold;vertical-align:top;">REQUEST_METHOD</td><td style="vertical-align:top;">:</td><td><div>GET</div></td></tr><tr><td style="font-weight:bold;vertical-align:top;">SCRIPT_NAME</td><td style="vertical-align:top;">:</td><td><div></div></td></tr><tr><td style="font-weight:bold;vertical-align:top;">SERVER_NAME</td><td style="vertical-align:top;">:</td><td><div>tasneem</div></td></tr><tr><td style="font-weight:bold;vertical-align:top;">SERVER_PORT</td><td style="vertical-align:top;">:</td><td><div>8000</div></td></tr><tr><td style="font-weight:bold;vertical-align:top;">SERVER_PROTOCOL</td><td style="vertical-align:top;">:</td><td><div>HTTP/1.1</div></td></tr><tr><td style="font-weight:bold;vertical-align:top;">SERVER_SOFTWARE</td><td style="vertical-align:top;">:</td><td><div>Rocket 1.2.6</div></td></tr><tr><td style="font-weight:bold;vertical-align:top;">app_folders</td><td style="vertical-align:top;">:</td><td><div>set([&#x27;C:\\\\Users\\\\hd\\\\PycharmProjects\\\\untitled\\\\web2py\\\\applications\\\\darkcloud1\\\\&#x27;, &#x27;C:\\\\Users\\\\hd\\\\PycharmProjects\\\\untitled\\\\web2py\\\\applications\\\\admin\\\\&#x27;, &#x27;C:\\\\Users\\\\hd\\\\PycharmProjects\\\\untitled\\\\web2py\\\\applications\\\\welcome\\\\&#x27;])</div></td></tr><tr><td style="font-weight:bold;vertical-align:top;">applications_parent</td><td style="vertical-align:top;">:</td><td><div>C:\\Users\\hd\\PycharmProjects\\untitled\\web2py</div></td></tr><tr><td style="font-weight:bold;vertical-align:top;">cmd_args</td><td style="vertical-align:top;">:</td><td><div><table></table></div></td></tr><tr><td style="font-weight:bold;vertical-align:top;">cmd_options</td><td style="vertical-align:top;">:</td><td><div>&lt;Values at 0x6f50e08: {&#x27;verbose&#x27;: False, &#x27;ip&#x27;: &#x27;127.0.0.1&#x27;, &#x27;debuglevel&#x27;: 30, &#x27;with_scheduler&#x27;: False, &#x27;shutdown_timeout&#x27;: 5, &#x27;taskbar&#x27;: False, &#x27;with_coverage&#x27;: False, &#x27;pid_filename&#x27;: &#x27;httpserver.pid&#x27;, &#x27;maxthreads&#x27;: None, &#x27;softcron&#x27;: False, &#x27;server_name&#x27;: &#x27;tasneem&#x27;, &#x27;bpython&#x27;: False, &#x27;nogui&#x27;: False, &#x27;port&#x27;: 8000, &#x27;print_errors&#x27;: False, &#x27;extcron&#x27;: False, &#x27;runcron&#x27;: False, &#x27;run_system_tests&#x27;: False, &#x27;test&#x27;: None, &#x27;folder&#x27;: &#x27;C:\\\\Users\\\\hd\\\\PycharmProjects\\\\untitled\\\\web2py&#x27;, &#x27;config&#x27;: &#x27;&#x27;, &#x27;minthreads&#x27;: None, &#x27;shell&#x27;: None, &#x27;run&#x27;: &#x27;&#x27;, &#x27;log_filename&#x27;: &#x27;httpserver.log&#x27;, &#x27;profiler_dir&#x27;: None, &#x27;args&#x27;: [&#x27;&#x27;], &#x27;socket_timeout&#x27;: 5, &#x27;ssl_ca_certificate&#x27;: None, &#x27;scheduler&#x27;: None, &#x27;interfaces&#x27;: None, &#x27;ssl_private_key&#x27;: &#x27;&#x27;, &#x27;gae&#x27;: None, &#x27;password&#x27;: &#x27;******&#x27;, &#x27;request_queue_size&#x27;: 5, &#x27;ssl_certificate&#x27;: &#x27;&#x27;, &#x27;cronjob&#x27;: False, &#x27;numthreads&#x27;: None, &#x27;quiet&#x27;: False, &#x27;import_models&#x27;: False, &#x27;timeout&#x27;: 10, &#x27;plain&#x27;: False, &#x27;nobanner&#x27;: False}&gt;</div></td></tr><tr><td style="font-weight:bold;vertical-align:top;">db_sessions</td><td style="vertical-align:top;">:</td><td><div>set([])</div></td></tr><tr><td style="font-weight:bold;vertical-align:top;">debugging</td><td style="vertical-align:top;">:</td><td><div>False</div></td></tr><tr><td style="font-weight:bold;vertical-align:top;">gluon_parent</td><td style="vertical-align:top;">:</td><td><div>C:\\Users\\hd\\PycharmProjects\\untitled\\web2py</div></td></tr><tr><td style="font-weight:bold;vertical-align:top;">http_accept</td><td style="vertical-align:top;">:</td><td><div>text/html, application/xhtml+xml, image/jxr, */*</div></td></tr><tr><td style="font-weight:bold;vertical-align:top;">http_accept_encoding</td><td style="vertical-align:top;">:</td><td><div>gzip, deflate</div></td></tr><tr><td style="font-weight:bold;vertical-align:top;">http_accept_language</td><td style="vertical-align:top;">:</td><td><div>en-US</div></td></tr><tr><td style="font-weight:bold;vertical-align:top;">http_connection</td><td style="vertical-align:top;">:</td><td><div>Keep-Alive</div></td></tr><tr><td style="font-weight:bold;vertical-align:top;">http_cookie</td><td style="vertical-align:top;">:</td><td><div>session_id_welcome=127.0.0.1-ab6ea133-1347-4ade-94bf-d558af51c690; session_id_admin=127.0.0.1-bcf2fbd0-ee5b-49d8-9a49-31bfcb1c26e0; session_id_darkcloud1=127.0.0.1-7eecb705-f1a9-426f-ae22-88e750fb5cfa</div></td></tr><tr><td style="font-weight:bold;vertical-align:top;">http_host</td><td style="vertical-align:top;">:</td><td><div>127.0.0.1:8000</div></td></tr><tr><td style="font-weight:bold;vertical-align:top;">http_referer</td><td style="vertical-align:top;">:</td><td><div>http://127.0.0.1:8000/darkcloud1/default/subscriber/add_sensors</div></td></tr><tr><td style="font-weight:bold;vertical-align:top;">http_user_agent</td><td style="vertical-align:top;">:</td><td><div>Mozilla/5.0 (Windows NT 10.0; Win64; x64) AppleWebKit/537.36 (KHTML, like Gecko) Chrome/58.0.3029.110 Safari/537.36 Edge/16.16299</div></td></tr><tr><td style="font-weight:bold;vertical-align:top;">is_jython</td><td style="vertical-align:top;">:</td><td><div>False</div></td></tr><tr><td style="font-weight:bold;vertical-align:top;">is_py2</td><td style="vertical-align:top;">:</td><td><div>True</div></td></tr><tr><td style="font-weight:bold;vertical-align:top;">is_pypy</td><td style="vertical-align:top;">:</td><td><div>False</div></td></tr><tr><td style="font-weight:bold;vertical-align:top;">is_source</td><td style="vertical-align:top;">:</td><td><div>True</div></td></tr><tr><td style="font-weight:bold;vertical-align:top;">local_hosts</td><td style="vertical-align:top;">:</td><td><div><table><tr><td><div>192.168.153.1</div></td></tr><tr><td><div>fe80::5cf7:579:cc61:1cf0%22</div></td></tr><tr><td><div>fe80::41b4:b3f5:1301:13c2%10</div></td></tr><tr><td><div>::ffff:127.0.0.1</div></td></tr><tr><td><div>::1</div></td></tr><tr><td><div>192.168.188.1</div></td></tr><tr><td><div>192.168.50.1</div></td></tr><tr><td><div>fe80::4807:4abc:a288:fdb3%2</div></td></tr><tr><td><div>tasneem</div></td></tr><tr><td><div>fe80::ec74:5042:7a11:bddb%9</div></td></tr><tr><td><div>192.168.108.1</div></td></tr><tr><td><div>fe80::70c1:6b8f:528a:de5b%4</div></td></tr><tr><td><div>127.0.0.1</div></td></tr><tr><td><div>192.168.56.1</div></td></tr></table></div></td></tr><tr><td style="font-weight:bold;vertical-align:top;">path_info</td><td style="vertical-align:top;">:</td><td><div>/darkcloud1/default/subscriber/endpoints</div></td></tr><tr><td style="font-weight:bold;vertical-align:top;">query_string</td><td style="vertical-align:top;">:</td><td><div></div></td></tr><tr><td style="font-weight:bold;vertical-align:top;">remote_addr</td><td style="vertical-align:top;">:</td><td><div>127.0.0.1</div></td></tr><tr><td style="font-weight:bold;vertical-align:top;">remote_port</td><td style="vertical-align:top;">:</td><td><div>49870</div></td></tr><tr><td style="font-weight:bold;vertical-align:top;">request_method</td><td style="vertical-align:top;">:</td><td><div>GET</div></td></tr><tr><td style="font-weight:bold;vertical-align:top;">request_uri</td><td style="vertical-align:top;">:</td><td><div>/darkcloud1/default/subscriber/endpoints</div></td></tr><tr><td style="font-weight:bold;vertical-align:top;">script_name</td><td style="vertical-align:top;">:</td><td><div></div></td></tr><tr><td style="font-weight:bold;vertical-align:top;">server_name</td><td style="vertical-align:top;">:</td><td><div>tasneem</div></td></tr><tr><td style="font-weight:bold;vertical-align:top;">server_port</td><td style="vertical-align:top;">:</td><td><div>8000</div></td></tr><tr><td style="font-weight:bold;vertical-align:top;">server_protocol</td><td style="vertical-align:top;">:</td><td><div>HTTP/1.1</div></td></tr><tr><td style="font-weight:bold;vertical-align:top;">server_software</td><td style="vertical-align:top;">:</td><td><div>Rocket 1.2.6</div></td></tr><tr><td style="font-weight:bold;vertical-align:top;">web2py_path</td><td style="vertical-align:top;">:</td><td><div>C:\\Users\\hd\\PycharmProjects\\untitled\\web2py</div></td></tr><tr><td style="font-weight:bold;vertical-align:top;">web2py_version</td><td style="vertical-align:top;">:</td><td><div>2.16.1-stable+timestamp.2017.11.14.05.54.25</div></td></tr><tr><td style="font-weight:bold;vertical-align:top;">wsgi.errors</td><td style="vertical-align:top;">:</td><td><div>&lt;open file &#x27;&lt;stderr&gt;&#x27;, mode &#x27;w&#x27; at 0x00000000056BB150&gt;</div></td></tr><tr><td style="font-weight:bold;vertical-align:top;">wsgi.file_wrapper</td><td style="vertical-align:top;">:</td><td><div>&lt;class wsgiref.util.FileWrapper at 0x0000000006F0F348&gt;</div></td></tr><tr><td style="font-weight:bold;vertical-align:top;">wsgi.input</td><td style="vertical-align:top;">:</td><td><div>&lt;socket._fileobject object at 0x000000000DEDF0C0&gt;</div></td></tr><tr><td style="font-weight:bold;vertical-align:top;">wsgi.multiprocess</td><td style="vertical-align:top;">:</td><td><div>False</div></td></tr><tr><td style="font-weight:bold;vertical-align:top;">wsgi.multithread</td><td style="vertical-align:top;">:</td><td><div>True</div></td></tr><tr><td style="font-weight:bold;vertical-align:top;">wsgi.run_once</td><td style="vertical-align:top;">:</td><td><div>False</div></td></tr><tr><td style="font-weight:bold;vertical-align:top;">wsgi.url_scheme</td><td style="vertical-align:top;">:</td><td><div>http</div></td></tr><tr><td style="font-weight:bold;vertical-align:top;">wsgi.version</td><td style="vertical-align:top;">:</td><td><div><table><tr><td><div>1</div></td></tr><tr><td><div>0</div></td></tr></table></div></td></tr><tr><td style="font-weight:bold;vertical-align:top;">wsgi_errors</td><td style="vertical-align:top;">:</td><td><div>&lt;open file &#x27;&lt;stderr&gt;&#x27;, mode &#x27;w&#x27; at 0x00000000056BB150&gt;</div></td></tr><tr><td style="font-weight:bold;vertical-align:top;">wsgi_file_wrapper</td><td style="vertical-align:top;">:</td><td><div>&lt;class wsgiref.util.FileWrapper at 0x0000000006F0F348&gt;</div></td></tr><tr><td style="font-weight:bold;vertical-align:top;">wsgi_input</td><td style="vertical-align:top;">:</td><td><div>&lt;socket._fileobject object at 0x000000000DEDF0C0&gt;</div></td></tr><tr><td style="font-weight:bold;vertical-align:top;">wsgi_multiprocess</td><td style="vertical-align:top;">:</td><td><div>False</div></td></tr><tr><td style="font-weight:bold;vertical-align:top;">wsgi_multithread</td><td style="vertical-align:top;">:</td><td><div>True</div></td></tr><tr><td style="font-weight:bold;vertical-align:top;">wsgi_run_once</td><td style="vertical-align:top;">:</td><td><div>False</div></td></tr><tr><td style="font-weight:bold;vertical-align:top;">wsgi_url_scheme</td><td style="vertical-align:top;">:</td><td><div>http</div></td></tr><tr><td style="font-weight:bold;vertical-align:top;">wsgi_version</td><td style="vertical-align:top;">:</td><td><div><table><tr><td><div>1</div></td></tr><tr><td><div>0</div></td></tr></table></div></td></tr></table></div></td></tr><tr><td style="font-weight:bold;vertical-align:top;">extension</td><td style="vertical-align:top;">:</td><td><div>html</div></td></tr><tr><td style="font-weight:bold;vertical-align:top;">folder</td><td style="vertical-align:top;">:</td><td><div>C:\\Users\\hd\\PycharmProjects\\untitled\\web2py\\applications\\darkcloud1\\</div></td></tr><tr><td style="font-weight:bold;vertical-align:top;">function</td><td style="vertical-align:top;">:</td><td><div>subscriber</div></td></tr><tr><td style="font-weight:bold;vertical-align:top;">global_settings</td><td style="vertical-align:top;">:</td><td><div><table><tr><td style="font-weight:bold;vertical-align:top;">app_folders</td><td style="vertical-align:top;">:</td><td><div>set([&#x27;C:\\\\Users\\\\hd\\\\PycharmProjects\\\\untitled\\\\web2py\\\\applications\\\\darkcloud1\\\\&#x27;, &#x27;C:\\\\Users\\\\hd\\\\PycharmProjects\\\\untitled\\\\web2py\\\\applications\\\\admin\\\\&#x27;, &#x27;C:\\\\Users\\\\hd\\\\PycharmProjects\\\\untitled\\\\web2py\\\\applications\\\\welcome\\\\&#x27;])</div></td></tr><tr><td style="font-weight:bold;vertical-align:top;">applications_parent</td><td style="vertical-align:top;">:</td><td><div>C:\\Users\\hd\\PycharmProjects\\untitled\\web2py</div></td></tr><tr><td style="font-weight:bold;vertical-align:top;">cmd_args</td><td style="vertical-align:top;">:</td><td><div><table></table></div></td></tr><tr><td style="font-weight:bold;vertical-align:top;">cmd_options</td><td style="vertical-align:top;">:</td><td><div>&lt;Values at 0x6f50e08: {&#x27;verbose&#x27;: False, &#x27;ip&#x27;: &#x27;127.0.0.1&#x27;, &#x27;debuglevel&#x27;: 30, &#x27;with_scheduler&#x27;: False, &#x27;shutdown_timeout&#x27;: 5, &#x27;taskbar&#x27;: False, &#x27;with_coverage&#x27;: False, &#x27;pid_filename&#x27;: &#x27;httpserver.pid&#x27;, &#x27;maxthreads&#x27;: None, &#x27;softcron&#x27;: False, &#x27;server_name&#x27;: &#x27;tasneem&#x27;, &#x27;bpython&#x27;: False, &#x27;nogui&#x27;: False, &#x27;port&#x27;: 8000, &#x27;print_errors&#x27;: False, &#x27;extcron&#x27;: False, &#x27;runcron&#x27;: False, &#x27;run_system_tests&#x27;: False, &#x27;test&#x27;: None, &#x27;folder&#x27;: &#x27;C:\\\\Users\\\\hd\\\\PycharmProjects\\\\untitled\\\\web2py&#x27;, &#x27;config&#x27;: &#x27;&#x27;, &#x27;minthreads&#x27;: None, &#x27;shell&#x27;: None, &#x27;run&#x27;: &#x27;&#x27;, &#x27;log_filename&#x27;: &#x27;httpserver.log&#x27;, &#x27;profiler_dir&#x27;: None, &#x27;args&#x27;: [&#x27;&#x27;], &#x27;socket_timeout&#x27;: 5, &#x27;ssl_ca_certificate&#x27;: None, &#x27;scheduler&#x27;: None, &#x27;interfaces&#x27;: None, &#x27;ssl_private_key&#x27;: &#x27;&#x27;, &#x27;gae&#x27;: None, &#x27;password&#x27;: &#x27;******&#x27;, &#x27;request_queue_size&#x27;: 5, &#x27;ssl_certificate&#x27;: &#x27;&#x27;, &#x27;cronjob&#x27;: False, &#x27;numthreads&#x27;: None, &#x27;quiet&#x27;: False, &#x27;import_models&#x27;: False, &#x27;timeout&#x27;: 10, &#x27;plain&#x27;: False, &#x27;nobanner&#x27;: False}&gt;</div></td></tr><tr><td style="font-weight:bold;vertical-align:top;">db_sessions</td><td style="vertical-align:top;">:</td><td><div>set([])</div></td></tr><tr><td style="font-weight:bold;vertical-align:top;">debugging</td><td style="vertical-align:top;">:</td><td><div>False</div></td></tr><tr><td style="font-weight:bold;vertical-align:top;">gluon_parent</td><td style="vertical-align:top;">:</td><td><div>C:\\Users\\hd\\PycharmProjects\\untitled\\web2py</div></td></tr><tr><td style="font-weight:bold;vertical-align:top;">is_jython</td><td style="vertical-align:top;">:</td><td><div>False</div></td></tr><tr><td style="font-weight:bold;vertical-align:top;">is_py2</td><td style="vertical-align:top;">:</td><td><div>True</div></td></tr><tr><td style="font-weight:bold;vertical-align:top;">is_pypy</td><td style="vertical-align:top;">:</td><td><div>False</div></td></tr><tr><td style="font-weight:bold;vertical-align:top;">is_source</td><td style="vertical-align:top;">:</td><td><div>True</div></td></tr><tr><td style="font-weight:bold;vertical-align:top;">local_hosts</td><td style="vertical-align:top;">:</td><td><div><table><tr><td><div>192.168.153.1</div></td></tr><tr><td><div>fe80::5cf7:579:cc61:1cf0%22</div></td></tr><tr><td><div>fe80::41b4:b3f5:1301:13c2%10</div></td></tr><tr><td><div>::ffff:127.0.0.1</div></td></tr><tr><td><div>::1</div></td></tr><tr><td><div>192.168.188.1</div></td></tr><tr><td><div>192.168.50.1</div></td></tr><tr><td><div>fe80::4807:4abc:a288:fdb3%2</div></td></tr><tr><td><div>tasneem</div></td></tr><tr><td><div>fe80::ec74:5042:7a11:bddb%9</div></td></tr><tr><td><div>192.168.108.1</div></td></tr><tr><td><div>fe80::70c1:6b8f:528a:de5b%4</div></td></tr><tr><td><div>127.0.0.1</div></td></tr><tr><td><div>192.168.56.1</div></td></tr></table></div></td></tr><tr><td style="font-weight:bold;vertical-align:top;">web2py_version</td><td style="vertical-align:top;">:</td><td><div>2.16.1-stable+timestamp.2017.11.14.05.54.25</div></td></tr></table></div></td></tr><tr><td style="font-weight:bold;vertical-align:top;">is_https</td><td style="vertical-align:top;">:</td><td><div>False</div></td></tr><tr><td style="font-weight:bold;vertical-align:top;">is_local</td><td style="vertical-align:top;">:</td><td><div>True</div></td></tr><tr><td style="font-weight:bold;vertical-align:top;">is_restful</td><td style="vertical-align:top;">:</td><td><div>False</div></td></tr><tr><td style="font-weight:bold;vertical-align:top;">is_scheduler</td><td style="vertical-align:top;">:</td><td><div>False</div></td></tr><tr><td style="font-weight:bold;vertical-align:top;">is_shell</td><td style="vertical-align:top;">:</td><td><div>False</div></td></tr><tr><td style="font-weight:bold;vertical-align:top;">now</td><td style="vertical-align:top;">:</td><td><div>datetime.datetime(2018, 4, 23, 15, 57, 15, 460000)</div></td></tr><tr><td style="font-weight:bold;vertical-align:top;">raw_args</td><td style="vertical-align:top;">:</td><td><div>endpoints</div></td></tr><tr><td style="font-weight:bold;vertical-align:top;">raw_extension</td><td style="vertical-align:top;">:</td><td><div>None</div></td></tr><tr><td style="font-weight:bold;vertical-align:top;">url</td><td style="vertical-align:top;">:</td><td><div>/darkcloud1/default/subscriber/endpoints</div></td></tr><tr><td style="font-weight:bold;vertical-align:top;">utcnow</td><td style="vertical-align:top;">:</td><td><div>datetime.datetime(2018, 4, 23, 13, 57, 15, 460000)</div></td></tr><tr><td style="font-weight:bold;vertical-align:top;">wsgi</td><td style="vertical-align:top;">:</td><td><div>&lt;gluon.main.LazyWSGI object at 0x000000000EDA0518&gt;</div></td></tr></table></div>'
tRp59
sS'frames'
p60
(lp61
(dp62
S'file'
p63
S'C:\\Users\\hd\\PycharmProjects\\untitled\\web2py\\gluon\\restricted.py'
p64
sS'dump'
p65
(dp66
S'environment'
p67
S"{'A': <class 'gluon.html.A'>, 'ANY_OF': <class 'gluon.validators.ANY_OF'>, 'ASSIGNJS': <function ASSIGNJS>, 'AppConfig': <function AppConfig>, 'Auth': <class 'gluon.tools.Auth'>, 'B': <class 'gluon.html.B'>, 'BEAUTIFY': <class 'gluon.html.BEAUTIFY'>, 'BODY': <class 'gluon.html.BODY'>, 'BR': <class 'gluon.html.BR'>, 'BUTTON': <class 'gluon.html.BUTTON'>, ...}"
p68
sS'ccode'
p69
S'<code object <module> at 000000000E3340B0, file ...arkcloud1\\views\\default/subscriber.html", line 1>'
p70
ssS'lnum'
p71
I219
sS'lines'
p72
(dp73
I214
S'    if environment is None:'
p74
sI215
S'        environment = {}'
p75
sI216
S"    environment['__file__'] = layer"
p76
sI217
S"    environment['__name__'] = '__restricted__'"
p77
sI218
S'    try:'
p78
sI219
S'        exec(ccode, environment)'
p79
sI220
S'    except HTTP:'
p80
sI221
S'        raise'
p81
sI222
S'    except RestrictedError:'
p82
sI223
S'        # do not encapsulate (obfuscate) the original RestrictedError'
p83
ssS'call'
p84
S'(ccode=<code object <module> at 000000000E3340B0, file ...arkcloud1\\views\\default/subscriber.html", line 1>, environment={\'A\': <class \'gluon.html.A\'>, \'ANY_OF\': <class \'gluon.validators.ANY_OF\'>, \'ASSIGNJS\': <function ASSIGNJS>, \'AppConfig\': <function AppConfig>, \'Auth\': <class \'gluon.tools.Auth\'>, \'B\': <class \'gluon.html.B\'>, \'BEAUTIFY\': <class \'gluon.html.BEAUTIFY\'>, \'BODY\': <class \'gluon.html.BODY\'>, \'BR\': <class \'gluon.html.BR\'>, \'BUTTON\': <class \'gluon.html.BUTTON\'>, ...}, layer=r\'C:\\Users\\hd\\PycharmProjects\\untitled\\web2py\\applications\\darkcloud1\\views\\default/subscriber.html\', scode=r"response.write(\'<!DOCTYPE html>\\r\\n<!--[if (gt I...n\\r\\n\\r\\n  </body>\\r\\n</html>\\r\\n\', escape=False)")'
p85
sS'func'
p86
S'restricted'
p87
sa(dp88
g63
S'C:\\Users\\hd\\PycharmProjects\\untitled\\web2py\\applications\\darkcloud1\\views\\default\\subscriber.html'
p89
sg65
(dp90
S'div'
p91
S'undefined'
p92
ssg71
I99
sg72
(dp93
I96
S"        response.write('</td>\\r\\n                  <td> ', escape=False)"
p94
sI97
S'        response.write(row.enrolled_flag)'
p95
sI98
S'        response.write(\'\\r\\n                  <span style="float:right;">\\r\\n                 <a href="\', escape=False)'
p96
sI99
S"        response.write(URL(f='subscriber',vars={'deletid':row.id},args=['device']))"
p97
sI100
S'        response.write(\'"> <i class="fa fa-minus-square" style="color:red;"></i></a>\\r\\n                  </span></td>\\r\\n                     </tr>\\r\\n                    \', escape=False)'
p98
sI101
S'        pass'
p99
sI102
S"    response.write('\\r\\n\\r\\n          </tbody></table>  </div>\\r\\n\\r\\n                ', escape=False)"
p100
sI103
S"elif session['action']=='submissions':"
p101
sI104
S'    response.write(\'\\r\\n                <div class="box-body" id="submission" style="display: block;">\\r\\n              <table id="example2" class="table table-bordered table-hover">\\r\\n                <thead>\\r\\n                <tr>\\r\\n                  <th>Submitter</th>\\r\\n                  <th>Type</th>\\r\\n                    <th>File hash</th>\\r\\n                    <th>Timestamp</th>\\r\\n                  <th>Domain</th>\\r\\n                    <th>source</th>\\r\\n                    <th>destination</th>\\r\\n                    <th>protocol</th>\\r\\n\\r\\n                </tr>\\r\\n                </thead>\\r\\n                <tbody>\\r\\n                \', escape=False)'
p102
sI105
S'    for row in devicestemp:'
p103
sI106
S"        response.write('\\r\\n                <tr>\\r\\n                  <td>', escape=False)"
p104
sI107
S'        response.write(row.submitter_id)'
p105
sI108
S"        response.write('</td>\\r\\n                  <td>\\r\\n                  ', escape=False)"
p106
sI109
S'        response.write(row.submitter_type)'
p107
sI90
S"            response.write('\\r\\n                  <td>', escape=False)"
p108
sI91
S'            response.write(row.os_version)'
p109
sI92
S"            response.write('</td>\\r\\n                    ', escape=False)"
p110
sI93
S'            pass'
p111
sI94
S"        response.write('\\r\\n                  <td>', escape=False)"
p112
sI95
S'        response.write(row.enrollement_timestamp)'
p113
ssg84
S'()'
p114
sg86
S'<module>'
p115
sa(dp116
g63
S'C:\\Users\\hd\\PycharmProjects\\untitled\\web2py\\gluon\\packages\\dal\\pydal\\objects.py'
p117
sg65
(dp118
S'builtinAttributeError'
p119
S"<type 'exceptions.AttributeError'>"
p120
ssg71
I111
sg72
(dp121
I106
S''
sI107
S'    def __getattr__(self, k):'
p122
sI108
S'        try:'
p123
sI109
S'            return self.__getitem__(k)'
p124
sI110
S'        except KeyError:'
p125
sI111
S'            raise AttributeError'
p126
sI112
S''
sI113
S'    def __copy__(self):'
p127
sI114
S'        return Row(self)'
p128
sI115
S''
ssg84
S"(self=<Row {'enrolled_flag': None, 'ip': '12.44.5', 'e...d': '', 'owner_ID': 'subscriber@subscriber.com'}>, k='id')"
p129
sg86
S'__getattr__'
p130
sasS'pyver'
p131
S'Python 2.7.13: C:\\python27-x64\\python.exe (prefix: C:\\python27-x64)'
p132
sS'session'
p133
g58
(S's\xa3\x06\x00\x00<div><table><tr><td style="font-weight:bold;vertical-align:top;">action</td><td style="vertical-align:top;">:</td><td><div>endpoints</div></td></tr><tr><td style="font-weight:bold;vertical-align:top;">showtable</td><td style="vertical-align:top;">:</td><td><div>None</div></td></tr><tr><td style="font-weight:bold;vertical-align:top;">user</td><td style="vertical-align:top;">:</td><td><div><table><tr><td style="font-weight:bold;vertical-align:top;">License_count_endpoint</td><td style="vertical-align:top;">:</td><td><div>None</div></td></tr><tr><td style="font-weight:bold;vertical-align:top;">License_count_sensors</td><td style="vertical-align:top;">:</td><td><div>None</div></td></tr><tr><td style="font-weight:bold;vertical-align:top;">email</td><td style="vertical-align:top;">:</td><td><div>subscriber@subscriber.com</div></td></tr><tr><td style="font-weight:bold;vertical-align:top;">firstname</td><td style="vertical-align:top;">:</td><td><div>subscriber</div></td></tr><tr><td style="font-weight:bold;vertical-align:top;">lastname</td><td style="vertical-align:top;">:</td><td><div>subscriber</div></td></tr><tr><td style="font-weight:bold;vertical-align:top;">password</td><td style="vertical-align:top;">:</td><td><div>1</div></td></tr><tr><td style="font-weight:bold;vertical-align:top;">username</td><td style="vertical-align:top;">:</td><td><div>subscriber</div></td></tr><tr><td style="font-weight:bold;vertical-align:top;">usertype</td><td style="vertical-align:top;">:</td><td><div>2L</div></td></tr></table></div></td></tr><tr><td style="font-weight:bold;vertical-align:top;">vars</td><td style="vertical-align:top;">:</td><td><div><table></table></div></td></tr></table></div>'
tRp134
sS'etype'
p135
S"<type 'exceptions.AttributeError'>"
p136
sS'date'
p137
S'Mon Apr 23 15:57:15 2018'
p138
sS'response'
p139
g58
(S's{=\x00\x00<div><table><tr><td style="font-weight:bold;vertical-align:top;">body</td><td style="vertical-align:top;">:</td><td><div>&lt;cStringIO.StringO object at 0x000000000F0D38F0&gt;</div></td></tr><tr><td style="font-weight:bold;vertical-align:top;">cookies</td><td style="vertical-align:top;">:</td><td><div><table><tr><td style="font-weight:bold;vertical-align:top;">session_id_darkcloud1</td><td style="vertical-align:top;">:</td><td><div>127.0.0.1-7eecb705-f1a9-426f-ae22-88e750fb5cfa<table><tr><td style="font-weight:bold;vertical-align:top;">comment</td><td style="vertical-align:top;">:</td><td><div></div></td></tr><tr><td style="font-weight:bold;vertical-align:top;">domain</td><td style="vertical-align:top;">:</td><td><div></div></td></tr><tr><td style="font-weight:bold;vertical-align:top;">expires</td><td style="vertical-align:top;">:</td><td><div></div></td></tr><tr><td style="font-weight:bold;vertical-align:top;">httponly</td><td style="vertical-align:top;">:</td><td><div></div></td></tr><tr><td style="font-weight:bold;vertical-align:top;">max-age</td><td style="vertical-align:top;">:</td><td><div></div></td></tr><tr><td style="font-weight:bold;vertical-align:top;">path</td><td style="vertical-align:top;">:</td><td><div>/</div></td></tr><tr><td style="font-weight:bold;vertical-align:top;">secure</td><td style="vertical-align:top;">:</td><td><div></div></td></tr><tr><td style="font-weight:bold;vertical-align:top;">version</td><td style="vertical-align:top;">:</td><td><div></div></td></tr></table></div></td></tr></table></div></td></tr><tr><td style="font-weight:bold;vertical-align:top;">delimiters</td><td style="vertical-align:top;">:</td><td><div><table><tr><td><div>{{</div></td></tr><tr><td><div>}}</div></td></tr></table></div></td></tr><tr><td style="font-weight:bold;vertical-align:top;">files</td><td style="vertical-align:top;">:</td><td><div><table></table></div></td></tr><tr><td style="font-weight:bold;vertical-align:top;">flash</td><td style="vertical-align:top;">:</td><td><div></div></td></tr><tr><td style="font-weight:bold;vertical-align:top;">form_label_separator</td><td style="vertical-align:top;">:</td><td><div></div></td></tr><tr><td style="font-weight:bold;vertical-align:top;">formstyle</td><td style="vertical-align:top;">:</td><td><div>bootstrap4_inline</div></td></tr><tr><td style="font-weight:bold;vertical-align:top;">generic_patterns</td><td style="vertical-align:top;">:</td><td><div><table><tr><td><div>*</div></td></tr></table></div></td></tr><tr><td style="font-weight:bold;vertical-align:top;">google_analytics_id</td><td style="vertical-align:top;">:</td><td><div>None</div></td></tr><tr><td style="font-weight:bold;vertical-align:top;">headers</td><td style="vertical-align:top;">:</td><td><div><table><tr><td style="font-weight:bold;vertical-align:top;">X-Powered-By</td><td style="vertical-align:top;">:</td><td><div>web2py</div></td></tr></table></div></td></tr><tr><td style="font-weight:bold;vertical-align:top;">menu</td><td style="vertical-align:top;">:</td><td><div><table><tr><td><div><table><tr><td><div>Home</div></td></tr><tr><td><div>False</div></td></tr><tr><td><div>/darkcloud1/default/index</div></td></tr><tr><td><div><table></table></div></td></tr></table></div></td></tr><tr><td><div><table><tr><td><div>My Sites</div></td></tr><tr><td><div>False</div></td></tr><tr><td><div>/admin/default/site</div></td></tr></table></div></td></tr><tr><td><div><table><tr><td><div>This App</div></td></tr><tr><td><div>False</div></td></tr><tr><td><div>#</div></td></tr><tr><td><div><table><tr><td><div><table><tr><td><div>Design</div></td></tr><tr><td><div>False</div></td></tr><tr><td><div>/admin/default/design/darkcloud1</div></td></tr></table></div></td></tr><tr><td><div><table><tr><td><div>Controller</div></td></tr><tr><td><div>False</div></td></tr><tr><td><div>/admin/default/edit/darkcloud1/controllers/default.py</div></td></tr></table></div></td></tr><tr><td><div><table><tr><td><div>View</div></td></tr><tr><td><div>False</div></td></tr><tr><td><div>/admin/default/edit/darkcloud1/views/default/subscriber.html</div></td></tr></table></div></td></tr><tr><td><div><table><tr><td><div>DB Model</div></td></tr><tr><td><div>False</div></td></tr><tr><td><div>/admin/default/edit/darkcloud1/models/db.py</div></td></tr></table></div></td></tr><tr><td><div><table><tr><td><div>Menu Model</div></td></tr><tr><td><div>False</div></td></tr><tr><td><div>/admin/default/edit/darkcloud1/models/menu.py</div></td></tr></table></div></td></tr><tr><td><div><table><tr><td><div>Config.ini</div></td></tr><tr><td><div>False</div></td></tr><tr><td><div>/admin/default/edit/darkcloud1/private/appconfig.ini</div></td></tr></table></div></td></tr><tr><td><div><table><tr><td><div>Layout</div></td></tr><tr><td><div>False</div></td></tr><tr><td><div>/admin/default/edit/darkcloud1/views/layout.html</div></td></tr></table></div></td></tr><tr><td><div><table><tr><td><div>Stylesheet</div></td></tr><tr><td><div>False</div></td></tr><tr><td><div>/admin/default/edit/darkcloud1/static/css/web2py-bootstrap3.css</div></td></tr></table></div></td></tr><tr><td><div><table><tr><td><div>Database</div></td></tr><tr><td><div>False</div></td></tr><tr><td><div>/darkcloud1/appadmin/index</div></td></tr></table></div></td></tr><tr><td><div><table><tr><td><div>Errors</div></td></tr><tr><td><div>False</div></td></tr><tr><td><div>/admin/default/errors/darkcloud1</div></td></tr></table></div></td></tr><tr><td><div><table><tr><td><div>About</div></td></tr><tr><td><div>False</div></td></tr><tr><td><div>/admin/default/about/darkcloud1</div></td></tr></table></div></td></tr></table></div></td></tr></table></div></td></tr><tr><td><div><table><tr><td><div>web2py.com</div></td></tr><tr><td><div>False</div></td></tr><tr><td><div>#</div></td></tr><tr><td><div><table><tr><td><div><table><tr><td><div>Download</div></td></tr><tr><td><div>False</div></td></tr><tr><td><div>http://www.web2py.com/examples/default/download</div></td></tr></table></div></td></tr><tr><td><div><table><tr><td><div>Support</div></td></tr><tr><td><div>False</div></td></tr><tr><td><div>http://www.web2py.com/examples/default/support</div></td></tr></table></div></td></tr><tr><td><div><table><tr><td><div>Demo</div></td></tr><tr><td><div>False</div></td></tr><tr><td><div>http://web2py.com/demo_admin</div></td></tr></table></div></td></tr><tr><td><div><table><tr><td><div>Quick Examples</div></td></tr><tr><td><div>False</div></td></tr><tr><td><div>http://web2py.com/examples/default/examples</div></td></tr></table></div></td></tr><tr><td><div><table><tr><td><div>FAQ</div></td></tr><tr><td><div>False</div></td></tr><tr><td><div>http://web2py.com/AlterEgo</div></td></tr></table></div></td></tr><tr><td><div><table><tr><td><div>Videos</div></td></tr><tr><td><div>False</div></td></tr><tr><td><div>http://www.web2py.com/examples/default/videos/</div></td></tr></table></div></td></tr><tr><td><div><table><tr><td><div>Free Applications</div></td></tr><tr><td><div>False</div></td></tr><tr><td><div>http://web2py.com/appliances</div></td></tr></table></div></td></tr><tr><td><div><table><tr><td><div>Plugins</div></td></tr><tr><td><div>False</div></td></tr><tr><td><div>http://web2py.com/plugins</div></td></tr></table></div></td></tr><tr><td><div><table><tr><td><div>Recipes</div></td></tr><tr><td><div>False</div></td></tr><tr><td><div>http://web2pyslices.com/</div></td></tr></table></div></td></tr></table></div></td></tr></table></div></td></tr><tr><td><div><table><tr><td><div>Documentation</div></td></tr><tr><td><div>False</div></td></tr><tr><td><div>#</div></td></tr><tr><td><div><table><tr><td><div><table><tr><td><div>Online book</div></td></tr><tr><td><div>False</div></td></tr><tr><td><div>http://www.web2py.com/book</div></td></tr></table></div></td></tr><tr><td><div><table><tr><td><div>Preface</div></td></tr><tr><td><div>False</div></td></tr><tr><td><div>http://www.web2py.com/book/default/chapter/00</div></td></tr></table></div></td></tr><tr><td><div><table><tr><td><div>Introduction</div></td></tr><tr><td><div>False</div></td></tr><tr><td><div>http://www.web2py.com/book/default/chapter/01</div></td></tr></table></div></td></tr><tr><td><div><table><tr><td><div>Python</div></td></tr><tr><td><div>False</div></td></tr><tr><td><div>http://www.web2py.com/book/default/chapter/02</div></td></tr></table></div></td></tr><tr><td><div><table><tr><td><div>Overview</div></td></tr><tr><td><div>False</div></td></tr><tr><td><div>http://www.web2py.com/book/default/chapter/03</div></td></tr></table></div></td></tr><tr><td><div><table><tr><td><div>The Core</div></td></tr><tr><td><div>False</div></td></tr><tr><td><div>http://www.web2py.com/book/default/chapter/04</div></td></tr></table></div></td></tr><tr><td><div><table><tr><td><div>The Views</div></td></tr><tr><td><div>False</div></td></tr><tr><td><div>http://www.web2py.com/book/default/chapter/05</div></td></tr></table></div></td></tr><tr><td><div><table><tr><td><div>Database</div></td></tr><tr><td><div>False</div></td></tr><tr><td><div>http://www.web2py.com/book/default/chapter/06</div></td></tr></table></div></td></tr><tr><td><div><table><tr><td><div>Forms and Validators</div></td></tr><tr><td><div>False</div></td></tr><tr><td><div>http://www.web2py.com/book/default/chapter/07</div></td></tr></table></div></td></tr><tr><td><div><table><tr><td><div>Email and SMS</div></td></tr><tr><td><div>False</div></td></tr><tr><td><div>http://www.web2py.com/book/default/chapter/08</div></td></tr></table></div></td></tr><tr><td><div><table><tr><td><div>Access Control</div></td></tr><tr><td><div>False</div></td></tr><tr><td><div>http://www.web2py.com/book/default/chapter/09</div></td></tr></table></div></td></tr><tr><td><div><table><tr><td><div>Services</div></td></tr><tr><td><div>False</div></td></tr><tr><td><div>http://www.web2py.com/book/default/chapter/10</div></td></tr></table></div></td></tr><tr><td><div><table><tr><td><div>Ajax Recipes</div></td></tr><tr><td><div>False</div></td></tr><tr><td><div>http://www.web2py.com/book/default/chapter/11</div></td></tr></table></div></td></tr><tr><td><div><table><tr><td><div>Components and Plugins</div></td></tr><tr><td><div>False</div></td></tr><tr><td><div>http://www.web2py.com/book/default/chapter/12</div></td></tr></table></div></td></tr><tr><td><div><table><tr><td><div>Deployment Recipes</div></td></tr><tr><td><div>False</div></td></tr><tr><td><div>http://www.web2py.com/book/default/chapter/13</div></td></tr></table></div></td></tr><tr><td><div><table><tr><td><div>Other Recipes</div></td></tr><tr><td><div>False</div></td></tr><tr><td><div>http://www.web2py.com/book/default/chapter/14</div></td></tr></table></div></td></tr><tr><td><div><table><tr><td><div>Helping web2py</div></td></tr><tr><td><div>False</div></td></tr><tr><td><div>http://www.web2py.com/book/default/chapter/15</div></td></tr></table></div></td></tr><tr><td><div><table><tr><td><div>Buy web2py\'s book</div></td></tr><tr><td><div>False</div></td></tr><tr><td><div>http://stores.lulu.com/web2py</div></td></tr></table></div></td></tr></table></div></td></tr></table></div></td></tr><tr><td><div><table><tr><td><div>Community</div></td></tr><tr><td><div>False</div></td></tr><tr><td><div>None</div></td></tr><tr><td><div><table><tr><td><div><table><tr><td><div>Groups</div></td></tr><tr><td><div>False</div></td></tr><tr><td><div>http://www.web2py.com/examples/default/usergroups</div></td></tr></table></div></td></tr><tr><td><div><table><tr><td><div>Twitter</div></td></tr><tr><td><div>False</div></td></tr><tr><td><div>http://twitter.com/web2py</div></td></tr></table></div></td></tr><tr><td><div><table><tr><td><div>Live Chat</div></td></tr><tr><td><div>False</div></td></tr><tr><td><div>http://webchat.freenode.net/?channels=web2py</div></td></tr></table></div></td></tr></table></div></td></tr></table></div></td></tr></table></div></td></tr><tr><td style="font-weight:bold;vertical-align:top;">meta</td><td style="vertical-align:top;">:</td><td><div><table><tr><td style="font-weight:bold;vertical-align:top;">author</td><td style="vertical-align:top;">:</td><td><div>Your Name &lt;you@example.com&gt;</div></td></tr><tr><td style="font-weight:bold;vertical-align:top;">description</td><td style="vertical-align:top;">:</td><td><div>a cool new app</div></td></tr><tr><td style="font-weight:bold;vertical-align:top;">generator</td><td style="vertical-align:top;">:</td><td><div>Web2py Web Framework</div></td></tr><tr><td style="font-weight:bold;vertical-align:top;">keywords</td><td style="vertical-align:top;">:</td><td><div><table><tr><td><div>web2py</div></td></tr><tr><td><div>python</div></td></tr><tr><td><div>framework</div></td></tr></table></div></td></tr></table></div></td></tr><tr><td style="font-weight:bold;vertical-align:top;">models_to_run</td><td style="vertical-align:top;">:</td><td><div><table><tr><td><div>^\\w+\\.py$</div></td></tr><tr><td><div>^default/\\w+\\.py$</div></td></tr><tr><td><div>^default/subscriber/\\w+\\.py$</div></td></tr></table></div></td></tr><tr><td style="font-weight:bold;vertical-align:top;">postprocessing</td><td style="vertical-align:top;">:</td><td><div><table></table></div></td></tr><tr><td style="font-weight:bold;vertical-align:top;">session_client</td><td style="vertical-align:top;">:</td><td><div>127.0.0.1</div></td></tr><tr><td style="font-weight:bold;vertical-align:top;">session_cookie_compression_level</td><td style="vertical-align:top;">:</td><td><div>None</div></td></tr><tr><td style="font-weight:bold;vertical-align:top;">session_cookie_expires</td><td style="vertical-align:top;">:</td><td><div>None</div></td></tr><tr><td style="font-weight:bold;vertical-align:top;">session_data_name</td><td style="vertical-align:top;">:</td><td><div>session_data_darkcloud1</div></td></tr><tr><td style="font-weight:bold;vertical-align:top;">session_file</td><td style="vertical-align:top;">:</td><td><div>&lt;open file &#x27;C:\\\\Users\\\\hd\\\\PycharmProjects\\\\untitled\\\\web2py\\\\applications\\\\darkcloud1\\\\sessions\\\\121\\\\11c\\\\127.0.0.1-7eecb705-f1a9-426f-ae22-88e750fb5cfa&#x27;, mode &#x27;rb+&#x27; at 0x000000000D0468A0&gt;</div></td></tr><tr><td style="font-weight:bold;vertical-align:top;">session_filename</td><td style="vertical-align:top;">:</td><td><div>C:\\Users\\hd\\PycharmProjects\\untitled\\web2py\\applications\\darkcloud1\\sessions\\127.0.0.1-7eecb705-f1a9-426f-ae22-88e750fb5cfa</div></td></tr><tr><td style="font-weight:bold;vertical-align:top;">session_hash</td><td style="vertical-align:top;">:</td><td><div>8f4349c14a28b89908efb5735b31a416</div></td></tr><tr><td style="font-weight:bold;vertical-align:top;">session_id</td><td style="vertical-align:top;">:</td><td><div>127.0.0.1-7eecb705-f1a9-426f-ae22-88e750fb5cfa</div></td></tr><tr><td style="font-weight:bold;vertical-align:top;">session_id_name</td><td style="vertical-align:top;">:</td><td><div>session_id_darkcloud1</div></td></tr><tr><td style="font-weight:bold;vertical-align:top;">session_locked</td><td style="vertical-align:top;">:</td><td><div>True</div></td></tr><tr><td style="font-weight:bold;vertical-align:top;">session_masterapp</td><td style="vertical-align:top;">:</td><td><div>darkcloud1</div></td></tr><tr><td style="font-weight:bold;vertical-align:top;">session_new</td><td style="vertical-align:top;">:</td><td><div>False</div></td></tr><tr><td style="font-weight:bold;vertical-align:top;">session_storage_type</td><td style="vertical-align:top;">:</td><td><div>file</div></td></tr><tr><td style="font-weight:bold;vertical-align:top;">status</td><td style="vertical-align:top;">:</td><td><div>200</div></td></tr><tr><td style="font-weight:bold;vertical-align:top;">view</td><td style="vertical-align:top;">:</td><td><div>default/subscriber.html</div></td></tr></table></div>'
tRp140
sS'locals'
p141
(dp142
S'k'
S"'id'"
p143
sS'self'
p144
S"<Row {'enrolled_flag': None, 'ip': '12.44.5', 'e...d': '', 'owner_ID': 'subscriber@subscriber.com'}>"
p145
sssS'traceback'
p146
S'Traceback (most recent call last):\n  File "C:\\Users\\hd\\PycharmProjects\\untitled\\web2py\\gluon\\restricted.py", line 219, in restricted\n    exec(ccode, environment)\n  File "C:\\Users\\hd\\PycharmProjects\\untitled\\web2py\\applications\\darkcloud1\\views\\default/subscriber.html", line 99, in <module>\n    </div>\n  File "C:\\Users\\hd\\PycharmProjects\\untitled\\web2py\\gluon\\packages\\dal\\pydal\\objects.py", line 111, in __getattr__\n    raise AttributeError\nAttributeError\n'
p147
s.