(dp1
S'output'
p2
S'<class \'gluon.contrib.pymysql.err.InternalError\'> (1005, u\'Can\\\'t create table `darkcloud`.`process_traps` (errno: 150 "Foreign key constraint is incorrectly formed")\')'
p3
sS'layer'
p4
S'C:\\Users\\hd\\PycharmProjects\\untitled\\web2py\\applications\\darkcloud1\\models\\db.py'
p5
sS'code'
p6
S'<code object <module> at 000000000DD1D430, file "C:\\Users\\hd\\PycharmProjects\\untitled\\web2py\\applications\\darkcloud1\\models\\db.py", line 7>'
p7
sS'snapshot'
p8
(dp9
S'exception'
p10
(dp11
S'__module__'
p12
S"'gluon.contrib.pymysql.err'"
p13
sS'__getslice__'
p14
S"<method-wrapper '__getslice__' of InternalError object>"
p15
sS'__str__'
p16
S"<method-wrapper '__str__' of InternalError object>"
p17
sS'__reduce__'
p18
S'<built-in method __reduce__ of InternalError object>'
p19
sS'__dict__'
p20
S'{}'
p21
sS'__sizeof__'
p22
S'<built-in method __sizeof__ of InternalError object>'
p23
sS'__weakref__'
p24
S'None'
p25
sS'message'
p26
S"''"
p27
sS'__init__'
p28
S"<method-wrapper '__init__' of InternalError object>"
p29
sS'__setattr__'
p30
S"<method-wrapper '__setattr__' of InternalError object>"
p31
sS'__reduce_ex__'
p32
S'<built-in method __reduce_ex__ of InternalError object>'
p33
sS'__new__'
p34
S'<built-in method __new__ of type object>'
p35
sS'__format__'
p36
S'<built-in method __format__ of InternalError object>'
p37
sS'__class__'
p38
S"<class 'gluon.contrib.pymysql.err.InternalError'>"
p39
sS'__doc__'
p40
S"'Exception raised when the database encounters an...anymore, the transaction is\\n    out of sync, etc.'"
p41
sS'__getitem__'
p42
S"<method-wrapper '__getitem__' of InternalError object>"
p43
sS'__setstate__'
p44
S'<built-in method __setstate__ of InternalError object>'
p45
sS'__getattribute__'
p46
S"<method-wrapper '__getattribute__' of InternalError object>"
p47
sS'args'
p48
S'(1005, u\'Can\\\'t create table `darkcloud`.`process_traps... "Foreign key constraint is incorrectly formed")\')'
p49
sS'__subclasshook__'
p50
S'<built-in method __subclasshook__ of type object>'
p51
sS'__unicode__'
p52
S'<built-in method __unicode__ of InternalError object>'
p53
sS'__delattr__'
p54
S"<method-wrapper '__delattr__' of InternalError object>"
p55
sS'__repr__'
p56
S"<method-wrapper '__repr__' of InternalError object>"
p57
sS'__hash__'
p58
S"<method-wrapper '__hash__' of InternalError object>"
p59
ssS'evalue'
p60
S'(1005, u\'Can\\\'t create table `darkcloud`.`process_traps` (errno: 150 "Foreign key constraint is incorrectly formed")\')'
p61
sS'request'
p62
cgluon.html
XML_unpickle
p63
(S'sO_\x00\x00<div><table><tr><td style="font-weight:bold;vertical-align:top;">ajax</td><td style="vertical-align:top;">:</td><td><div>False</div></td></tr><tr><td style="font-weight:bold;vertical-align:top;">application</td><td style="vertical-align:top;">:</td><td><div>darkcloud1</div></td></tr><tr><td style="font-weight:bold;vertical-align:top;">args</td><td style="vertical-align:top;">:</td><td><div><table></table></div></td></tr><tr><td style="font-weight:bold;vertical-align:top;">cid</td><td style="vertical-align:top;">:</td><td><div>None</div></td></tr><tr><td style="font-weight:bold;vertical-align:top;">client</td><td style="vertical-align:top;">:</td><td><div>127.0.0.1</div></td></tr><tr><td style="font-weight:bold;vertical-align:top;">controller</td><td style="vertical-align:top;">:</td><td><div>appadmin</div></td></tr><tr><td style="font-weight:bold;vertical-align:top;">cookies</td><td style="vertical-align:top;">:</td><td><div><table><tr><td style="font-weight:bold;vertical-align:top;">session_id_admin</td><td style="vertical-align:top;">:</td><td><div>127.0.0.1-8f466f2a-c9f1-497e-9554-20cbb6660840<table><tr><td style="font-weight:bold;vertical-align:top;">comment</td><td style="vertical-align:top;">:</td><td><div></div></td></tr><tr><td style="font-weight:bold;vertical-align:top;">domain</td><td style="vertical-align:top;">:</td><td><div></div></td></tr><tr><td style="font-weight:bold;vertical-align:top;">expires</td><td style="vertical-align:top;">:</td><td><div></div></td></tr><tr><td style="font-weight:bold;vertical-align:top;">httponly</td><td style="vertical-align:top;">:</td><td><div></div></td></tr><tr><td style="font-weight:bold;vertical-align:top;">max-age</td><td style="vertical-align:top;">:</td><td><div></div></td></tr><tr><td style="font-weight:bold;vertical-align:top;">path</td><td style="vertical-align:top;">:</td><td><div></div></td></tr><tr><td style="font-weight:bold;vertical-align:top;">secure</td><td style="vertical-align:top;">:</td><td><div></div></td></tr><tr><td style="font-weight:bold;vertical-align:top;">version</td><td style="vertical-align:top;">:</td><td><div></div></td></tr></table></div></td></tr><tr><td style="font-weight:bold;vertical-align:top;">session_id_darkcloud1</td><td style="vertical-align:top;">:</td><td><div>127.0.0.1-3409330e-f8df-496c-b78c-a7fffbf52421<table><tr><td style="font-weight:bold;vertical-align:top;">comment</td><td style="vertical-align:top;">:</td><td><div></div></td></tr><tr><td style="font-weight:bold;vertical-align:top;">domain</td><td style="vertical-align:top;">:</td><td><div></div></td></tr><tr><td style="font-weight:bold;vertical-align:top;">expires</td><td style="vertical-align:top;">:</td><td><div></div></td></tr><tr><td style="font-weight:bold;vertical-align:top;">httponly</td><td style="vertical-align:top;">:</td><td><div></div></td></tr><tr><td style="font-weight:bold;vertical-align:top;">max-age</td><td style="vertical-align:top;">:</td><td><div></div></td></tr><tr><td style="font-weight:bold;vertical-align:top;">path</td><td style="vertical-align:top;">:</td><td><div></div></td></tr><tr><td style="font-weight:bold;vertical-align:top;">secure</td><td style="vertical-align:top;">:</td><td><div></div></td></tr><tr><td style="font-weight:bold;vertical-align:top;">version</td><td style="vertical-align:top;">:</td><td><div></div></td></tr></table></div></td></tr><tr><td style="font-weight:bold;vertical-align:top;">session_id_welcome</td><td style="vertical-align:top;">:</td><td><div>127.0.0.1-9ea852e7-2535-4e83-a772-ffdbd723fd86<table><tr><td style="font-weight:bold;vertical-align:top;">comment</td><td style="vertical-align:top;">:</td><td><div></div></td></tr><tr><td style="font-weight:bold;vertical-align:top;">domain</td><td style="vertical-align:top;">:</td><td><div></div></td></tr><tr><td style="font-weight:bold;vertical-align:top;">expires</td><td style="vertical-align:top;">:</td><td><div></div></td></tr><tr><td style="font-weight:bold;vertical-align:top;">httponly</td><td style="vertical-align:top;">:</td><td><div></div></td></tr><tr><td style="font-weight:bold;vertical-align:top;">max-age</td><td style="vertical-align:top;">:</td><td><div></div></td></tr><tr><td style="font-weight:bold;vertical-align:top;">path</td><td style="vertical-align:top;">:</td><td><div></div></td></tr><tr><td style="font-weight:bold;vertical-align:top;">secure</td><td style="vertical-align:top;">:</td><td><div></div></td></tr><tr><td style="font-weight:bold;vertical-align:top;">version</td><td style="vertical-align:top;">:</td><td><div></div></td></tr></table></div></td></tr></table></div></td></tr><tr><td style="font-weight:bold;vertical-align:top;">env</td><td style="vertical-align:top;">:</td><td><div><table><tr><td style="font-weight:bold;vertical-align:top;">HTTP_ACCEPT</td><td style="vertical-align:top;">:</td><td><div>text/html, application/xhtml+xml, image/jxr, */*</div></td></tr><tr><td style="font-weight:bold;vertical-align:top;">HTTP_ACCEPT_ENCODING</td><td style="vertical-align:top;">:</td><td><div>gzip, deflate</div></td></tr><tr><td style="font-weight:bold;vertical-align:top;">HTTP_ACCEPT_LANGUAGE</td><td style="vertical-align:top;">:</td><td><div>en-US</div></td></tr><tr><td style="font-weight:bold;vertical-align:top;">HTTP_CONNECTION</td><td style="vertical-align:top;">:</td><td><div>Keep-Alive</div></td></tr><tr><td style="font-weight:bold;vertical-align:top;">HTTP_COOKIE</td><td style="vertical-align:top;">:</td><td><div>session_id_welcome=127.0.0.1-9ea852e7-2535-4e83-a772-ffdbd723fd86; session_id_admin=127.0.0.1-8f466f2a-c9f1-497e-9554-20cbb6660840; session_id_darkcloud1=127.0.0.1-3409330e-f8df-496c-b78c-a7fffbf52421</div></td></tr><tr><td style="font-weight:bold;vertical-align:top;">HTTP_HOST</td><td style="vertical-align:top;">:</td><td><div>127.0.0.1:8000</div></td></tr><tr><td style="font-weight:bold;vertical-align:top;">HTTP_USER_AGENT</td><td style="vertical-align:top;">:</td><td><div>Mozilla/5.0 (Windows NT 10.0; Win64; x64) AppleWebKit/537.36 (KHTML, like Gecko) Chrome/58.0.3029.110 Safari/537.36 Edge/16.16299</div></td></tr><tr><td style="font-weight:bold;vertical-align:top;">PATH_INFO</td><td style="vertical-align:top;">:</td><td><div>/darkcloud1/appadmin/index</div></td></tr><tr><td style="font-weight:bold;vertical-align:top;">QUERY_STRING</td><td style="vertical-align:top;">:</td><td><div></div></td></tr><tr><td style="font-weight:bold;vertical-align:top;">REMOTE_ADDR</td><td style="vertical-align:top;">:</td><td><div>127.0.0.1</div></td></tr><tr><td style="font-weight:bold;vertical-align:top;">REMOTE_PORT</td><td style="vertical-align:top;">:</td><td><div>55500</div></td></tr><tr><td style="font-weight:bold;vertical-align:top;">REQUEST_METHOD</td><td style="vertical-align:top;">:</td><td><div>GET</div></td></tr><tr><td style="font-weight:bold;vertical-align:top;">SCRIPT_NAME</td><td style="vertical-align:top;">:</td><td><div></div></td></tr><tr><td style="font-weight:bold;vertical-align:top;">SERVER_NAME</td><td style="vertical-align:top;">:</td><td><div>tasneem</div></td></tr><tr><td style="font-weight:bold;vertical-align:top;">SERVER_PORT</td><td style="vertical-align:top;">:</td><td><div>8000</div></td></tr><tr><td style="font-weight:bold;vertical-align:top;">SERVER_PROTOCOL</td><td style="vertical-align:top;">:</td><td><div>HTTP/1.1</div></td></tr><tr><td style="font-weight:bold;vertical-align:top;">SERVER_SOFTWARE</td><td style="vertical-align:top;">:</td><td><div>Rocket 1.2.6</div></td></tr><tr><td style="font-weight:bold;vertical-align:top;">app_folders</td><td style="vertical-align:top;">:</td><td><div>set([&#x27;C:\\\\Users\\\\hd\\\\PycharmProjects\\\\untitled\\\\web2py\\\\applications\\\\darkcloud1\\\\&#x27;, &#x27;C:\\\\Users\\\\hd\\\\PycharmProjects\\\\untitled\\\\web2py\\\\applications\\\\admin\\\\&#x27;, &#x27;C:\\\\Users\\\\hd\\\\PycharmProjects\\\\untitled\\\\web2py\\\\applications\\\\welcome\\\\&#x27;])</div></td></tr><tr><td style="font-weight:bold;vertical-align:top;">applications_parent</td><td style="vertical-align:top;">:</td><td><div>C:\\Users\\hd\\PycharmProjects\\untitled\\web2py</div></td></tr><tr><td style="font-weight:bold;vertical-align:top;">cmd_args</td><td style="vertical-align:top;">:</td><td><div><table></table></div></td></tr><tr><td style="font-weight:bold;vertical-align:top;">cmd_options</td><td style="vertical-align:top;">:</td><td><div>&lt;Values at 0x7567e08: {&#x27;verbose&#x27;: False, &#x27;ip&#x27;: &#x27;127.0.0.1&#x27;, &#x27;debuglevel&#x27;: 30, &#x27;with_scheduler&#x27;: False, &#x27;shutdown_timeout&#x27;: 5, &#x27;taskbar&#x27;: False, &#x27;with_coverage&#x27;: False, &#x27;pid_filename&#x27;: &#x27;httpserver.pid&#x27;, &#x27;maxthreads&#x27;: None, &#x27;softcron&#x27;: False, &#x27;server_name&#x27;: &#x27;tasneem&#x27;, &#x27;bpython&#x27;: False, &#x27;nogui&#x27;: False, &#x27;port&#x27;: 8000, &#x27;print_errors&#x27;: False, &#x27;extcron&#x27;: False, &#x27;runcron&#x27;: False, &#x27;run_system_tests&#x27;: False, &#x27;test&#x27;: None, &#x27;folder&#x27;: &#x27;C:\\\\Users\\\\hd\\\\PycharmProjects\\\\untitled\\\\web2py&#x27;, &#x27;config&#x27;: &#x27;&#x27;, &#x27;minthreads&#x27;: None, &#x27;shell&#x27;: None, &#x27;run&#x27;: &#x27;&#x27;, &#x27;log_filename&#x27;: &#x27;httpserver.log&#x27;, &#x27;profiler_dir&#x27;: None, &#x27;args&#x27;: [&#x27;&#x27;], &#x27;socket_timeout&#x27;: 5, &#x27;ssl_ca_certificate&#x27;: None, &#x27;scheduler&#x27;: None, &#x27;interfaces&#x27;: None, &#x27;ssl_private_key&#x27;: &#x27;&#x27;, &#x27;gae&#x27;: None, &#x27;password&#x27;: &#x27;******&#x27;, &#x27;request_queue_size&#x27;: 5, &#x27;ssl_certificate&#x27;: &#x27;&#x27;, &#x27;cronjob&#x27;: False, &#x27;numthreads&#x27;: None, &#x27;quiet&#x27;: False, &#x27;import_models&#x27;: False, &#x27;timeout&#x27;: 10, &#x27;plain&#x27;: False, &#x27;nobanner&#x27;: False}&gt;</div></td></tr><tr><td style="font-weight:bold;vertical-align:top;">db_sessions</td><td style="vertical-align:top;">:</td><td><div>set([])</div></td></tr><tr><td style="font-weight:bold;vertical-align:top;">debugging</td><td style="vertical-align:top;">:</td><td><div>False</div></td></tr><tr><td style="font-weight:bold;vertical-align:top;">gluon_parent</td><td style="vertical-align:top;">:</td><td><div>C:\\Users\\hd\\PycharmProjects\\untitled\\web2py</div></td></tr><tr><td style="font-weight:bold;vertical-align:top;">http_accept</td><td style="vertical-align:top;">:</td><td><div>text/html, application/xhtml+xml, image/jxr, */*</div></td></tr><tr><td style="font-weight:bold;vertical-align:top;">http_accept_encoding</td><td style="vertical-align:top;">:</td><td><div>gzip, deflate</div></td></tr><tr><td style="font-weight:bold;vertical-align:top;">http_accept_language</td><td style="vertical-align:top;">:</td><td><div>en-US</div></td></tr><tr><td style="font-weight:bold;vertical-align:top;">http_connection</td><td style="vertical-align:top;">:</td><td><div>Keep-Alive</div></td></tr><tr><td style="font-weight:bold;vertical-align:top;">http_cookie</td><td style="vertical-align:top;">:</td><td><div>session_id_welcome=127.0.0.1-9ea852e7-2535-4e83-a772-ffdbd723fd86; session_id_admin=127.0.0.1-8f466f2a-c9f1-497e-9554-20cbb6660840; session_id_darkcloud1=127.0.0.1-3409330e-f8df-496c-b78c-a7fffbf52421</div></td></tr><tr><td style="font-weight:bold;vertical-align:top;">http_host</td><td style="vertical-align:top;">:</td><td><div>127.0.0.1:8000</div></td></tr><tr><td style="font-weight:bold;vertical-align:top;">http_user_agent</td><td style="vertical-align:top;">:</td><td><div>Mozilla/5.0 (Windows NT 10.0; Win64; x64) AppleWebKit/537.36 (KHTML, like Gecko) Chrome/58.0.3029.110 Safari/537.36 Edge/16.16299</div></td></tr><tr><td style="font-weight:bold;vertical-align:top;">is_jython</td><td style="vertical-align:top;">:</td><td><div>False</div></td></tr><tr><td style="font-weight:bold;vertical-align:top;">is_py2</td><td style="vertical-align:top;">:</td><td><div>True</div></td></tr><tr><td style="font-weight:bold;vertical-align:top;">is_pypy</td><td style="vertical-align:top;">:</td><td><div>False</div></td></tr><tr><td style="font-weight:bold;vertical-align:top;">is_source</td><td style="vertical-align:top;">:</td><td><div>True</div></td></tr><tr><td style="font-weight:bold;vertical-align:top;">local_hosts</td><td style="vertical-align:top;">:</td><td><div><table><tr><td><div>192.168.153.1</div></td></tr><tr><td><div>fe80::5cf7:579:cc61:1cf0%22</div></td></tr><tr><td><div>fe80::41b4:b3f5:1301:13c2%10</div></td></tr><tr><td><div>fe80::d18c:aaa8:7042:24e8%15</div></td></tr><tr><td><div>::ffff:127.0.0.1</div></td></tr><tr><td><div>::1</div></td></tr><tr><td><div>192.168.188.1</div></td></tr><tr><td><div>192.168.50.1</div></td></tr><tr><td><div>192.168.1.4</div></td></tr><tr><td><div>fe80::4807:4abc:a288:fdb3%2</div></td></tr><tr><td><div>tasneem</div></td></tr><tr><td><div>fe80::ec74:5042:7a11:bddb%9</div></td></tr><tr><td><div>192.168.108.1</div></td></tr><tr><td><div>fe80::70c1:6b8f:528a:de5b%4</div></td></tr><tr><td><div>127.0.0.1</div></td></tr><tr><td><div>192.168.56.1</div></td></tr></table></div></td></tr><tr><td style="font-weight:bold;vertical-align:top;">path_info</td><td style="vertical-align:top;">:</td><td><div>/darkcloud1/appadmin/index</div></td></tr><tr><td style="font-weight:bold;vertical-align:top;">query_string</td><td style="vertical-align:top;">:</td><td><div></div></td></tr><tr><td style="font-weight:bold;vertical-align:top;">remote_addr</td><td style="vertical-align:top;">:</td><td><div>127.0.0.1</div></td></tr><tr><td style="font-weight:bold;vertical-align:top;">remote_port</td><td style="vertical-align:top;">:</td><td><div>55500</div></td></tr><tr><td style="font-weight:bold;vertical-align:top;">request_method</td><td style="vertical-align:top;">:</td><td><div>GET</div></td></tr><tr><td style="font-weight:bold;vertical-align:top;">request_uri</td><td style="vertical-align:top;">:</td><td><div>/darkcloud1/appadmin/index</div></td></tr><tr><td style="font-weight:bold;vertical-align:top;">script_name</td><td style="vertical-align:top;">:</td><td><div></div></td></tr><tr><td style="font-weight:bold;vertical-align:top;">server_name</td><td style="vertical-align:top;">:</td><td><div>tasneem</div></td></tr><tr><td style="font-weight:bold;vertical-align:top;">server_port</td><td style="vertical-align:top;">:</td><td><div>8000</div></td></tr><tr><td style="font-weight:bold;vertical-align:top;">server_protocol</td><td style="vertical-align:top;">:</td><td><div>HTTP/1.1</div></td></tr><tr><td style="font-weight:bold;vertical-align:top;">server_software</td><td style="vertical-align:top;">:</td><td><div>Rocket 1.2.6</div></td></tr><tr><td style="font-weight:bold;vertical-align:top;">web2py_path</td><td style="vertical-align:top;">:</td><td><div>C:\\Users\\hd\\PycharmProjects\\untitled\\web2py</div></td></tr><tr><td style="font-weight:bold;vertical-align:top;">web2py_version</td><td style="vertical-align:top;">:</td><td><div>2.16.1-stable+timestamp.2017.11.14.05.54.25</div></td></tr><tr><td style="font-weight:bold;vertical-align:top;">wsgi.errors</td><td style="vertical-align:top;">:</td><td><div>&lt;open file &#x27;&lt;stderr&gt;&#x27;, mode &#x27;w&#x27; at 0x0000000005D0B150&gt;</div></td></tr><tr><td style="font-weight:bold;vertical-align:top;">wsgi.file_wrapper</td><td style="vertical-align:top;">:</td><td><div>&lt;class wsgiref.util.FileWrapper at 0x0000000007526348&gt;</div></td></tr><tr><td style="font-weight:bold;vertical-align:top;">wsgi.input</td><td style="vertical-align:top;">:</td><td><div>&lt;socket._fileobject object at 0x000000000DD1B8B8&gt;</div></td></tr><tr><td style="font-weight:bold;vertical-align:top;">wsgi.multiprocess</td><td style="vertical-align:top;">:</td><td><div>False</div></td></tr><tr><td style="font-weight:bold;vertical-align:top;">wsgi.multithread</td><td style="vertical-align:top;">:</td><td><div>True</div></td></tr><tr><td style="font-weight:bold;vertical-align:top;">wsgi.run_once</td><td style="vertical-align:top;">:</td><td><div>False</div></td></tr><tr><td style="font-weight:bold;vertical-align:top;">wsgi.url_scheme</td><td style="vertical-align:top;">:</td><td><div>http</div></td></tr><tr><td style="font-weight:bold;vertical-align:top;">wsgi.version</td><td style="vertical-align:top;">:</td><td><div><table><tr><td><div>1</div></td></tr><tr><td><div>0</div></td></tr></table></div></td></tr><tr><td style="font-weight:bold;vertical-align:top;">wsgi_errors</td><td style="vertical-align:top;">:</td><td><div>&lt;open file &#x27;&lt;stderr&gt;&#x27;, mode &#x27;w&#x27; at 0x0000000005D0B150&gt;</div></td></tr><tr><td style="font-weight:bold;vertical-align:top;">wsgi_file_wrapper</td><td style="vertical-align:top;">:</td><td><div>&lt;class wsgiref.util.FileWrapper at 0x0000000007526348&gt;</div></td></tr><tr><td style="font-weight:bold;vertical-align:top;">wsgi_input</td><td style="vertical-align:top;">:</td><td><div>&lt;socket._fileobject object at 0x000000000DD1B8B8&gt;</div></td></tr><tr><td style="font-weight:bold;vertical-align:top;">wsgi_multiprocess</td><td style="vertical-align:top;">:</td><td><div>False</div></td></tr><tr><td style="font-weight:bold;vertical-align:top;">wsgi_multithread</td><td style="vertical-align:top;">:</td><td><div>True</div></td></tr><tr><td style="font-weight:bold;vertical-align:top;">wsgi_run_once</td><td style="vertical-align:top;">:</td><td><div>False</div></td></tr><tr><td style="font-weight:bold;vertical-align:top;">wsgi_url_scheme</td><td style="vertical-align:top;">:</td><td><div>http</div></td></tr><tr><td style="font-weight:bold;vertical-align:top;">wsgi_version</td><td style="vertical-align:top;">:</td><td><div><table><tr><td><div>1</div></td></tr><tr><td><div>0</div></td></tr></table></div></td></tr></table></div></td></tr><tr><td style="font-weight:bold;vertical-align:top;">extension</td><td style="vertical-align:top;">:</td><td><div>html</div></td></tr><tr><td style="font-weight:bold;vertical-align:top;">folder</td><td style="vertical-align:top;">:</td><td><div>C:\\Users\\hd\\PycharmProjects\\untitled\\web2py\\applications\\darkcloud1\\</div></td></tr><tr><td style="font-weight:bold;vertical-align:top;">function</td><td style="vertical-align:top;">:</td><td><div>index</div></td></tr><tr><td style="font-weight:bold;vertical-align:top;">global_settings</td><td style="vertical-align:top;">:</td><td><div><table><tr><td style="font-weight:bold;vertical-align:top;">app_folders</td><td style="vertical-align:top;">:</td><td><div>set([&#x27;C:\\\\Users\\\\hd\\\\PycharmProjects\\\\untitled\\\\web2py\\\\applications\\\\darkcloud1\\\\&#x27;, &#x27;C:\\\\Users\\\\hd\\\\PycharmProjects\\\\untitled\\\\web2py\\\\applications\\\\admin\\\\&#x27;, &#x27;C:\\\\Users\\\\hd\\\\PycharmProjects\\\\untitled\\\\web2py\\\\applications\\\\welcome\\\\&#x27;])</div></td></tr><tr><td style="font-weight:bold;vertical-align:top;">applications_parent</td><td style="vertical-align:top;">:</td><td><div>C:\\Users\\hd\\PycharmProjects\\untitled\\web2py</div></td></tr><tr><td style="font-weight:bold;vertical-align:top;">cmd_args</td><td style="vertical-align:top;">:</td><td><div><table></table></div></td></tr><tr><td style="font-weight:bold;vertical-align:top;">cmd_options</td><td style="vertical-align:top;">:</td><td><div>&lt;Values at 0x7567e08: {&#x27;verbose&#x27;: False, &#x27;ip&#x27;: &#x27;127.0.0.1&#x27;, &#x27;debuglevel&#x27;: 30, &#x27;with_scheduler&#x27;: False, &#x27;shutdown_timeout&#x27;: 5, &#x27;taskbar&#x27;: False, &#x27;with_coverage&#x27;: False, &#x27;pid_filename&#x27;: &#x27;httpserver.pid&#x27;, &#x27;maxthreads&#x27;: None, &#x27;softcron&#x27;: False, &#x27;server_name&#x27;: &#x27;tasneem&#x27;, &#x27;bpython&#x27;: False, &#x27;nogui&#x27;: False, &#x27;port&#x27;: 8000, &#x27;print_errors&#x27;: False, &#x27;extcron&#x27;: False, &#x27;runcron&#x27;: False, &#x27;run_system_tests&#x27;: False, &#x27;test&#x27;: None, &#x27;folder&#x27;: &#x27;C:\\\\Users\\\\hd\\\\PycharmProjects\\\\untitled\\\\web2py&#x27;, &#x27;config&#x27;: &#x27;&#x27;, &#x27;minthreads&#x27;: None, &#x27;shell&#x27;: None, &#x27;run&#x27;: &#x27;&#x27;, &#x27;log_filename&#x27;: &#x27;httpserver.log&#x27;, &#x27;profiler_dir&#x27;: None, &#x27;args&#x27;: [&#x27;&#x27;], &#x27;socket_timeout&#x27;: 5, &#x27;ssl_ca_certificate&#x27;: None, &#x27;scheduler&#x27;: None, &#x27;interfaces&#x27;: None, &#x27;ssl_private_key&#x27;: &#x27;&#x27;, &#x27;gae&#x27;: None, &#x27;password&#x27;: &#x27;******&#x27;, &#x27;request_queue_size&#x27;: 5, &#x27;ssl_certificate&#x27;: &#x27;&#x27;, &#x27;cronjob&#x27;: False, &#x27;numthreads&#x27;: None, &#x27;quiet&#x27;: False, &#x27;import_models&#x27;: False, &#x27;timeout&#x27;: 10, &#x27;plain&#x27;: False, &#x27;nobanner&#x27;: False}&gt;</div></td></tr><tr><td style="font-weight:bold;vertical-align:top;">db_sessions</td><td style="vertical-align:top;">:</td><td><div>set([])</div></td></tr><tr><td style="font-weight:bold;vertical-align:top;">debugging</td><td style="vertical-align:top;">:</td><td><div>False</div></td></tr><tr><td style="font-weight:bold;vertical-align:top;">gluon_parent</td><td style="vertical-align:top;">:</td><td><div>C:\\Users\\hd\\PycharmProjects\\untitled\\web2py</div></td></tr><tr><td style="font-weight:bold;vertical-align:top;">is_jython</td><td style="vertical-align:top;">:</td><td><div>False</div></td></tr><tr><td style="font-weight:bold;vertical-align:top;">is_py2</td><td style="vertical-align:top;">:</td><td><div>True</div></td></tr><tr><td style="font-weight:bold;vertical-align:top;">is_pypy</td><td style="vertical-align:top;">:</td><td><div>False</div></td></tr><tr><td style="font-weight:bold;vertical-align:top;">is_source</td><td style="vertical-align:top;">:</td><td><div>True</div></td></tr><tr><td style="font-weight:bold;vertical-align:top;">local_hosts</td><td style="vertical-align:top;">:</td><td><div><table><tr><td><div>192.168.153.1</div></td></tr><tr><td><div>fe80::5cf7:579:cc61:1cf0%22</div></td></tr><tr><td><div>fe80::41b4:b3f5:1301:13c2%10</div></td></tr><tr><td><div>fe80::d18c:aaa8:7042:24e8%15</div></td></tr><tr><td><div>::ffff:127.0.0.1</div></td></tr><tr><td><div>::1</div></td></tr><tr><td><div>192.168.188.1</div></td></tr><tr><td><div>192.168.50.1</div></td></tr><tr><td><div>192.168.1.4</div></td></tr><tr><td><div>fe80::4807:4abc:a288:fdb3%2</div></td></tr><tr><td><div>tasneem</div></td></tr><tr><td><div>fe80::ec74:5042:7a11:bddb%9</div></td></tr><tr><td><div>192.168.108.1</div></td></tr><tr><td><div>fe80::70c1:6b8f:528a:de5b%4</div></td></tr><tr><td><div>127.0.0.1</div></td></tr><tr><td><div>192.168.56.1</div></td></tr></table></div></td></tr><tr><td style="font-weight:bold;vertical-align:top;">web2py_version</td><td style="vertical-align:top;">:</td><td><div>2.16.1-stable+timestamp.2017.11.14.05.54.25</div></td></tr></table></div></td></tr><tr><td style="font-weight:bold;vertical-align:top;">is_https</td><td style="vertical-align:top;">:</td><td><div>False</div></td></tr><tr><td style="font-weight:bold;vertical-align:top;">is_local</td><td style="vertical-align:top;">:</td><td><div>True</div></td></tr><tr><td style="font-weight:bold;vertical-align:top;">is_restful</td><td style="vertical-align:top;">:</td><td><div>False</div></td></tr><tr><td style="font-weight:bold;vertical-align:top;">is_scheduler</td><td style="vertical-align:top;">:</td><td><div>False</div></td></tr><tr><td style="font-weight:bold;vertical-align:top;">is_shell</td><td style="vertical-align:top;">:</td><td><div>False</div></td></tr><tr><td style="font-weight:bold;vertical-align:top;">now</td><td style="vertical-align:top;">:</td><td><div>datetime.datetime(2018, 4, 21, 20, 48, 38, 364000)</div></td></tr><tr><td style="font-weight:bold;vertical-align:top;">raw_args</td><td style="vertical-align:top;">:</td><td><div></div></td></tr><tr><td style="font-weight:bold;vertical-align:top;">raw_extension</td><td style="vertical-align:top;">:</td><td><div>None</div></td></tr><tr><td style="font-weight:bold;vertical-align:top;">url</td><td style="vertical-align:top;">:</td><td><div>/darkcloud1/appadmin/index</div></td></tr><tr><td style="font-weight:bold;vertical-align:top;">utcnow</td><td style="vertical-align:top;">:</td><td><div>datetime.datetime(2018, 4, 21, 18, 48, 38, 364000)</div></td></tr><tr><td style="font-weight:bold;vertical-align:top;">wsgi</td><td style="vertical-align:top;">:</td><td><div>&lt;gluon.main.LazyWSGI object at 0x000000000E8CDD68&gt;</div></td></tr></table></div>'
tRp64
sS'frames'
p65
(lp66
(dp67
S'file'
p68
S'C:\\Users\\hd\\PycharmProjects\\untitled\\web2py\\gluon\\restricted.py'
p69
sS'dump'
p70
(dp71
S'environment'
p72
S"{'A': <class 'gluon.html.A'>, 'ANY_OF': <class 'gluon.validators.ANY_OF'>, 'ASSIGNJS': <function ASSIGNJS>, 'AppConfig': <function AppConfig>, 'Auth': <class 'gluon.tools.Auth'>, 'B': <class 'gluon.html.B'>, 'BEAUTIFY': <class 'gluon.html.BEAUTIFY'>, 'BODY': <class 'gluon.html.BODY'>, 'BR': <class 'gluon.html.BR'>, 'BUTTON': <class 'gluon.html.BUTTON'>, ...}"
p73
sS'ccode'
p74
S'<code object <module> at 000000000DD1D430, file ...py\\applications\\darkcloud1\\models\\db.py", line 7>'
p75
ssS'lnum'
p76
I219
sS'lines'
p77
(dp78
I214
S'    if environment is None:'
p79
sI215
S'        environment = {}'
p80
sI216
S"    environment['__file__'] = layer"
p81
sI217
S"    environment['__name__'] = '__restricted__'"
p82
sI218
S'    try:'
p83
sI219
S'        exec(ccode, environment)'
p84
sI220
S'    except HTTP:'
p85
sI221
S'        raise'
p86
sI222
S'    except RestrictedError:'
p87
sI223
S'        # do not encapsulate (obfuscate) the original RestrictedError'
p88
ssS'call'
p89
S'(ccode=<code object <module> at 000000000DD1D430, file ...py\\applications\\darkcloud1\\models\\db.py", line 7>, environment={\'A\': <class \'gluon.html.A\'>, \'ANY_OF\': <class \'gluon.validators.ANY_OF\'>, \'ASSIGNJS\': <function ASSIGNJS>, \'AppConfig\': <function AppConfig>, \'Auth\': <class \'gluon.tools.Auth\'>, \'B\': <class \'gluon.html.B\'>, \'BEAUTIFY\': <class \'gluon.html.BEAUTIFY\'>, \'BODY\': <class \'gluon.html.BODY\'>, \'BR\': <class \'gluon.html.BR\'>, \'BUTTON\': <class \'gluon.html.BUTTON\'>, ...}, layer=r\'C:\\Users\\hd\\PycharmProjects\\untitled\\web2py\\applications\\darkcloud1\\models\\db.py\', scode=<code object <module> at 000000000DD1D430, file ...py\\applications\\darkcloud1\\models\\db.py", line 7>)'
p90
sS'func'
p91
S'restricted'
p92
sa(dp93
g68
S'C:\\Users\\hd\\PycharmProjects\\untitled\\web2py\\applications\\darkcloud1\\models\\db.py'
p94
sg70
(dp95
S'Field'
p96
S"<class 'pydal.objects.Field'>"
p97
ssg76
I243
sg77
(dp98
I238
S"   Field('creator_pid'),"
p99
sI239
S"   Field('creator_path'),"
p100
sI240
S"   Field('creator_hash'),"
p101
sI241
S"   Field('child_id'),"
p102
sI242
S"   Field('child_hash'),"
p103
sI243
S"   Field('child_image_path'),"
p104
sI244
S'#migrate=False'
p105
sI245
S')'
sI246
S''
sI247
S'db.define_table('
p106
ssg89
S'()'
p107
sg91
S'<module>'
p108
sa(dp109
g68
S'C:\\Users\\hd\\PycharmProjects\\untitled\\web2py\\gluon\\packages\\dal\\pydal\\base.py'
p110
sg70
(dp111
S'fields'
p112
S'(<pydal.objects.Field object>, <pydal.objects.Field object>, <pydal.objects.Field object>, <pydal.objects.Field object>, <pydal.objects.Field object>, <pydal.objects.Field object>, <pydal.objects.Field object>, <pydal.objects.Field object>, <pydal.objects.Field object>, <pydal.objects.Field object>, <pydal.objects.Field object>)'
p113
sS'self'
p114
S'<DAL uri="mysql:******@localhost/darkcloud">'
p115
sS'args'
p116
g21
sS'tablename'
p117
S"'process_traps'"
p118
sS'table'
p119
S'undefined'
p120
sS'self.lazy_define_table'
p121
S'<bound method DAL.lazy_define_table of <DAL uri="mysql:******@localhost/darkcloud">>'
p122
ssg76
I586
sg77
(dp123
I581
S'                                  (tablename, invalid_args))'
p124
sI582
S'        if self._lazy_tables and tablename not in self._LAZY_TABLES:'
p125
sI583
S'            self._LAZY_TABLES[tablename] = (tablename, fields, args)'
p126
sI584
S'            table = None'
p127
sI585
S'        else:'
p128
sI586
S'            table = self.lazy_define_table(tablename, *fields, **args)'
p129
sI587
S'        if tablename not in self.tables:'
p130
sI588
S'            self.tables.append(tablename)'
p131
sI589
S'        return table'
p132
sI590
S''
ssg89
S'(self=<DAL uri="mysql:******@localhost/darkcloud">, tablename=\'process_traps\', *fields=(<pydal.objects.Field object>, <pydal.objects.Field object>, <pydal.objects.Field object>, <pydal.objects.Field object>, <pydal.objects.Field object>, <pydal.objects.Field object>, <pydal.objects.Field object>, <pydal.objects.Field object>, <pydal.objects.Field object>, <pydal.objects.Field object>, <pydal.objects.Field object>), **args={})'
p133
sg91
S'define_table'
p134
sa(dp135
g68
S'C:\\Users\\hd\\PycharmProjects\\untitled\\web2py\\gluon\\packages\\dal\\pydal\\base.py'
p136
sg70
(dp137
S'polymodel'
p138
S'None'
p139
ssg76
I620
sg77
(dp140
I615
S'            try:'
p141
sI616
S'                GLOBAL_LOCKER.acquire()'
p142
sI617
S'                self._adapter.create_table('
p143
sI618
S'                    table, migrate=migrate,'
p144
sI619
S'                    fake_migrate=fake_migrate,'
p145
sI620
S'                    polymodel=polymodel)'
p146
sI621
S'            finally:'
p147
sI622
S'                GLOBAL_LOCKER.release()'
p148
sI623
S'        else:'
p149
sI624
S'            table._dbt = None'
p150
ssg89
S'(self=<DAL uri="mysql:******@localhost/darkcloud">, tablename=\'process_traps\', *fields=(<pydal.objects.Field object>, <pydal.objects.Field object>, <pydal.objects.Field object>, <pydal.objects.Field object>, <pydal.objects.Field object>, <pydal.objects.Field object>, <pydal.objects.Field object>, <pydal.objects.Field object>, <pydal.objects.Field object>, <pydal.objects.Field object>, <pydal.objects.Field object>), **args={})'
p151
sg91
S'lazy_define_table'
p152
sa(dp153
g68
S'C:\\Users\\hd\\PycharmProjects\\untitled\\web2py\\gluon\\packages\\dal\\pydal\\adapters\\base.py'
p154
sg70
(dp155
S'self'
p156
S'<pydal.adapters.mysql.MySQL object>'
p157
sS'args'
p158
S'(<Table process_traps (id, trap_id, endpoint_id, ...or_hash, child_id, child_hash, child_image_path)>,)'
p159
sS'self.migrator'
p160
S'<pydal.migrator.Migrator object>'
p161
sS'self.migrator.create_table'
p162
S'<bound method Migrator.create_table of <pydal.migrator.Migrator object>>'
p163
sS'kwargs'
p164
S"{'fake_migrate': False, 'migrate': True, 'polymodel': None}"
p165
ssg76
I797
sg77
(dp166
I800
S'        super(SQLAdapter, self)._drop_table_cleanup(table)'
p167
sI801
S'        if table._dbt:'
p168
sI792
S''
sI793
S'    def bulk_insert(self, table, items):'
p169
sI794
S'        return [self.insert(table, item) for item in items]'
p170
sI795
S''
sI796
S'    def create_table(self, *args, **kwargs):'
p171
sI797
S'        return self.migrator.create_table(*args, **kwargs)'
p172
sI798
S''
sI799
S'    def _drop_table_cleanup(self, table):'
p173
ssg89
S"(self=<pydal.adapters.mysql.MySQL object>, *args=(<Table process_traps (id, trap_id, endpoint_id, ...or_hash, child_id, child_hash, child_image_path)>,), **kwargs={'fake_migrate': False, 'migrate': True, 'polymodel': None})"
p174
sg91
S'create_table'
p175
sa(dp176
g68
S'C:\\Users\\hd\\PycharmProjects\\untitled\\web2py\\gluon\\packages\\dal\\pydal\\migrator.py'
p177
sg70
(dp178
S'query'
p179
S"'CREATE TABLE `process_traps`(\\n    `id` INT AUTO_...RY KEY (`id`)\\n) ENGINE=InnoDB CHARACTER SET utf8;'"
p180
sS'self'
p181
S'<pydal.migrator.Migrator object>'
p182
sS'self.adapter'
p183
S'<pydal.adapters.mysql.MySQL object>'
p184
sS'self.adapter.create_sequence_and_triggers'
p185
S'<bound method MySQL.create_sequence_and_triggers of <pydal.adapters.mysql.MySQL object>>'
p186
sS'table'
p187
S'<Table process_traps (id, trap_id, endpoint_id, ...or_hash, child_id, child_hash, child_image_path)>'
p188
ssg76
I277
sg77
(dp189
I272
S'            if table._dbt:'
p190
sI273
S"                self.log('timestamp: %s\\n%s\\n'"
p191
sI274
S'                         % (datetime.datetime.today().isoformat(),'
p192
sI275
S'                            query), table)'
p193
sI276
S'            if not fake_migrate:'
p194
sI277
S'                self.adapter.create_sequence_and_triggers(query, table)'
p195
sI278
S'                db.commit()'
p196
sI279
S'                # Postgres geom fields are added now,'
p197
sI280
S'                # after the table has been created'
p198
sI281
S'                for query in postcreation_fields:'
p199
ssg89
S'(self=<pydal.migrator.Migrator object>, table=<Table process_traps (id, trap_id, endpoint_id, ...or_hash, child_id, child_hash, child_image_path)>, migrate=True, fake_migrate=False, polymodel=None)'
p200
sg91
g175
sa(dp201
g68
S'C:\\Users\\hd\\PycharmProjects\\untitled\\web2py\\gluon\\packages\\dal\\pydal\\adapters\\base.py'
p202
sg70
(dp203
S'query'
p204
S"'CREATE TABLE `process_traps`(\\n    `id` INT AUTO_...RY KEY (`id`)\\n) ENGINE=InnoDB CHARACTER SET utf8;'"
p205
sS'self'
p206
S'<pydal.adapters.mysql.MySQL object>'
p207
sS'self.execute'
p208
S'<bound method MySQL.wrap of <pydal.adapters.mysql.MySQL object>>'
p209
ssg76
I880
sg77
(dp210
I875
S'    @with_connection'
p211
sI876
S'    def rollback_prepared(self, key):'
p212
sI877
S'        self.connection.rollback()'
p213
sI878
S''
sI879
S'    def create_sequence_and_triggers(self, query, table, **args):'
p214
sI880
S'        self.execute(query)'
p215
sI881
S''
sI882
S'    def sqlsafe_table(self, tablename, original_tablename=None):'
p216
sI883
S'        if original_tablename is not None:'
p217
sI884
S'            return self.dialect.alias(original_tablename, tablename)'
p218
ssg89
S"(self=<pydal.adapters.mysql.MySQL object>, query='CREATE TABLE `process_traps`(\\n    `id` INT AUTO_...RY KEY (`id`)\\n) ENGINE=InnoDB CHARACTER SET utf8;', table=<Table process_traps (id, trap_id, endpoint_id, ...or_hash, child_id, child_hash, child_image_path)>, **args={})"
p219
sg91
S'create_sequence_and_triggers'
p220
sa(dp221
g68
S'C:\\Users\\hd\\PycharmProjects\\untitled\\web2py\\gluon\\packages\\dal\\pydal\\adapters\\__init__.py'
p222
sg70
(dp223
S'kwargs'
p224
g21
sS'args'
p225
S"(<pydal.adapters.mysql.MySQL object>, 'CREATE TABLE `process_traps`(\\n    `id` INT AUTO_...RY KEY (`id`)\\n) ENGINE=InnoDB CHARACTER SET utf8;')"
p226
sS'f'
S'<function execute>'
p227
ssg76
I67
sg77
(dp228
I64
S'            if len(args) > 1:'
p229
sI65
S'                raise ValueError(args[1])'
p230
sI66
S"            raise RuntimeError('no connection available')"
p231
sI67
S'        return f(*args, **kwargs)'
p232
sI68
S'    return wrap'
p233
sI69
S''
sI70
S''
sI71
S'from .base import SQLAdapter, NoSQLAdapter'
p234
sI62
S'    def wrap(*args, **kwargs):'
p235
sI63
S'        if not args[0].connection:'
p236
ssg89
S"(*args=(<pydal.adapters.mysql.MySQL object>, 'CREATE TABLE `process_traps`(\\n    `id` INT AUTO_...RY KEY (`id`)\\n) ENGINE=InnoDB CHARACTER SET utf8;'), **kwargs={})"
p237
sg91
S'wrap'
p238
sa(dp239
g68
S'C:\\Users\\hd\\PycharmProjects\\untitled\\web2py\\gluon\\packages\\dal\\pydal\\adapters\\base.py'
p240
sg70
(dp241
S'rv'
p242
g120
sS'self'
p243
S'<pydal.adapters.mysql.MySQL object>'
p244
sS'args'
p245
S"('CREATE TABLE `process_traps`(\\n    `id` INT AUTO_...RY KEY (`id`)\\n) ENGINE=InnoDB CHARACTER SET utf8;',)"
p246
sS'self.cursor'
p247
S'<gluon.contrib.pymysql.cursors.Cursor object>'
p248
sS'command'
p249
S"'CREATE TABLE `process_traps`(\\n    `id` INT AUTO_...RY KEY (`id`)\\n) ENGINE=InnoDB CHARACTER SET utf8;'"
p250
sS'self.cursor.execute'
p251
S'<bound method Cursor.execute of <gluon.contrib.pymysql.cursors.Cursor object>>'
p252
sS'kwargs'
p253
g21
ssg76
I412
sg77
(dp254
I416
S''
sI407
S'    def execute(self, *args, **kwargs):'
p255
sI408
S'        command = self.filter_sql_command(args[0])'
p256
sI409
S'        handlers = self._build_handlers_for_execution()'
p257
sI410
S'        for handler in handlers:'
p258
sI411
S'            handler.before_execute(command)'
p259
sI412
S'        rv = self.cursor.execute(command, *args[1:], **kwargs)'
p260
sI413
S'        for handler in handlers:'
p261
sI414
S'            handler.after_execute(command)'
p262
sI415
S'        return rv'
p263
ssg89
S"(self=<pydal.adapters.mysql.MySQL object>, *args=('CREATE TABLE `process_traps`(\\n    `id` INT AUTO_...RY KEY (`id`)\\n) ENGINE=InnoDB CHARACTER SET utf8;',), **kwargs={})"
p264
sg91
S'execute'
p265
sa(dp266
g68
S'C:\\Users\\hd\\PycharmProjects\\untitled\\web2py\\gluon\\contrib\\pymysql\\cursors.py'
p267
sg70
(dp268
S'query'
p269
S"'CREATE TABLE `process_traps`(\\n    `id` INT AUTO_...RY KEY (`id`)\\n) ENGINE=InnoDB CHARACTER SET utf8;'"
p270
sS'self'
p271
S'<gluon.contrib.pymysql.cursors.Cursor object>'
p272
sS'result'
p273
g120
sS'self._query'
p274
S'<bound method Cursor._query of <gluon.contrib.pymysql.cursors.Cursor object>>'
p275
ssg76
I166
sg77
(dp276
I161
S'        while self.nextset():'
p277
sI162
S'            pass'
p278
sI163
S''
sI164
S'        query = self.mogrify(query, args)'
p279
sI165
S''
sI166
S'        result = self._query(query)'
p280
sI167
S'        self._executed = query'
p281
sI168
S'        return result'
p282
sI169
S''
sI170
S'    def executemany(self, query, args):'
p283
ssg89
S"(self=<gluon.contrib.pymysql.cursors.Cursor object>, query='CREATE TABLE `process_traps`(\\n    `id` INT AUTO_...RY KEY (`id`)\\n) ENGINE=InnoDB CHARACTER SET utf8;', args=None)"
p284
sg91
g265
sa(dp285
g68
S'C:\\Users\\hd\\PycharmProjects\\untitled\\web2py\\gluon\\contrib\\pymysql\\cursors.py'
p286
sg70
(dp287
S'q'
S"'CREATE TABLE `process_traps`(\\n    `id` INT AUTO_...RY KEY (`id`)\\n) ENGINE=InnoDB CHARACTER SET utf8;'"
p288
sS'conn.query'
p289
S'<bound method Connection.query of <gluon.contrib.pymysql.connections.Connection object>>'
p290
sS'conn'
p291
S'<gluon.contrib.pymysql.connections.Connection object>'
p292
ssg76
I322
sg77
(dp293
I320
S'        conn = self._get_db()'
p294
sI321
S'        self._last_executed = q'
p295
sI322
S'        conn.query(q)'
p296
sI323
S'        self._do_get_result()'
p297
sI324
S'        return self.rowcount'
p298
sI325
S''
sI326
S'    def _do_get_result(self):'
p299
sI317
S'        self.rownumber = r'
p300
sI318
S''
sI319
S'    def _query(self, q):'
p301
ssg89
S"(self=<gluon.contrib.pymysql.cursors.Cursor object>, q='CREATE TABLE `process_traps`(\\n    `id` INT AUTO_...RY KEY (`id`)\\n) ENGINE=InnoDB CHARACTER SET utf8;')"
p302
sg91
S'_query'
p303
sa(dp304
g68
S'C:\\Users\\hd\\PycharmProjects\\untitled\\web2py\\gluon\\contrib\\pymysql\\connections.py'
p305
sg70
(dp306
S'self._read_query_result'
p307
S'<bound method Connection._read_query_result of <...n.contrib.pymysql.connections.Connection object>>'
p308
sS'self'
p309
S'<gluon.contrib.pymysql.connections.Connection object>'
p310
sS'unbuffered'
p311
S'False'
p312
sS'self._affected_rows'
p313
S'0'
ssg76
I835
sg77
(dp314
I832
S'            else:'
p315
sI833
S"                sql = sql.encode(self.encoding, 'surrogateescape')"
p316
sI834
S'        self._execute_command(COMMAND.COM_QUERY, sql)'
p317
sI835
S'        self._affected_rows = self._read_query_result(unbuffered=unbuffered)'
p318
sI836
S'        return self._affected_rows'
p319
sI837
S''
sI838
S'    def next_result(self, unbuffered=False):'
p320
sI839
S'        self._affected_rows = self._read_query_result(unbuffered=unbuffered)'
p321
sI830
S'            if PY2:'
p322
sI831
S'                sql = sql.encode(self.encoding)'
p323
ssg89
S"(self=<gluon.contrib.pymysql.connections.Connection object>, sql='CREATE TABLE `process_traps`(\\n    `id` INT AUTO_...RY KEY (`id`)\\n) ENGINE=InnoDB CHARACTER SET utf8;', unbuffered=False)"
p324
sg91
S'query'
p325
sa(dp326
g68
S'C:\\Users\\hd\\PycharmProjects\\untitled\\web2py\\gluon\\contrib\\pymysql\\connections.py'
p327
sg70
(dp328
S'result.read'
p329
S'<bound method MySQLResult.read of <gluon.contrib.pymysql.connections.MySQLResult object>>'
p330
sS'result'
p331
S'<gluon.contrib.pymysql.connections.MySQLResult object>'
p332
ssg76
I1019
sg77
(dp333
I1014
S'                result.unbuffered_active = False'
p334
sI1015
S'                result.connection = None'
p335
sI1016
S'                raise'
p336
sI1017
S'        else:'
p337
sI1018
S'            result = MySQLResult(self)'
p338
sI1019
S'            result.read()'
p339
sI1020
S'        self._result = result'
p340
sI1021
S'        if result.server_status is not None:'
p341
sI1022
S'            self.server_status = result.server_status'
p342
sI1023
S'        return result.affected_rows'
p343
ssg89
S'(self=<gluon.contrib.pymysql.connections.Connection object>, unbuffered=False)'
p344
sg91
S'_read_query_result'
p345
sa(dp346
g68
S'C:\\Users\\hd\\PycharmProjects\\untitled\\web2py\\gluon\\contrib\\pymysql\\connections.py'
p347
sg70
(dp348
S'first_packet'
p349
g120
sS'self'
p350
S'<gluon.contrib.pymysql.connections.MySQLResult object>'
p351
sS'self.connection'
p352
S'None'
p353
sS'self.connection._read_packet'
p354
g120
ssg76
I1302
sg77
(dp355
I1297
S'        if self.unbuffered_active:'
p356
sI1298
S'            self._finish_unbuffered_query()'
p357
sI1299
S''
sI1300
S'    def read(self):'
p358
sI1301
S'        try:'
p359
sI1302
S'            first_packet = self.connection._read_packet()'
p360
sI1303
S''
sI1304
S'            if first_packet.is_ok_packet():'
p361
sI1305
S'                self._read_ok_packet(first_packet)'
p362
sI1306
S'            elif first_packet.is_load_local_packet():'
p363
ssg89
S'(self=<gluon.contrib.pymysql.connections.MySQLResult object>)'
p364
sg91
S'read'
p365
sa(dp366
g68
S'C:\\Users\\hd\\PycharmProjects\\untitled\\web2py\\gluon\\contrib\\pymysql\\connections.py'
p367
sg70
(dp368
S'packet'
p369
S'<gluon.contrib.pymysql.connections.MysqlPacket object>'
p370
sS'packet.check_error'
p371
S'<bound method MysqlPacket.check_error of <gluon.contrib.pymysql.connections.MysqlPacket object>>'
p372
ssg76
I981
sg77
(dp373
I976
S'                continue'
p374
sI977
S'            if bytes_to_read < MAX_PACKET_LEN:'
p375
sI978
S'                break'
p376
sI979
S''
sI980
S'        packet = packet_type(buff, self.encoding)'
p377
sI981
S'        packet.check_error()'
p378
sI982
S'        return packet'
p379
sI983
S''
sI984
S'    def _read_bytes(self, num_bytes):'
p380
sI985
S'        self._sock.settimeout(self._read_timeout)'
p381
ssg89
S"(self=<gluon.contrib.pymysql.connections.Connection object>, packet_type=<class 'gluon.contrib.pymysql.connections.MysqlPacket'>)"
p382
sg91
S'_read_packet'
p383
sa(dp384
g68
S'C:\\Users\\hd\\PycharmProjects\\untitled\\web2py\\gluon\\contrib\\pymysql\\connections.py'
p385
sg70
(dp386
S'self._data'
p387
S'\'\\xff\\xed\\x03#HY000Can\\\'t create table `darkcloud`.`process...0 "Foreign key constraint is incorrectly formed")\''
p388
sS'self'
p389
S'<gluon.contrib.pymysql.connections.MysqlPacket object>'
p390
sS'global err'
p391
S"<module 'gluon.contrib.pymysql.err' from 'C:\\Use...s\\untitled\\web2py\\gluon\\contrib\\pymysql\\err.pyc'>"
p392
sS'err.raise_mysql_exception'
p393
S'<function raise_mysql_exception>'
p394
ssg76
I393
sg77
(dp395
I388
S'        if self.is_error_packet():'
p396
sI389
S'            self.rewind()'
p397
sI390
S'            self.advance(1)  # field_count == error (we already know that)'
p398
sI391
S'            errno = self.read_uint16()'
p399
sI392
S'            if DEBUG: print("errno =", errno)'
p400
sI393
S'            err.raise_mysql_exception(self._data)'
p401
sI394
S''
sI395
S'    def dump(self):'
p402
sI396
S'        dump_packet(self._data)'
p403
sI397
S''
ssg89
S'(self=<gluon.contrib.pymysql.connections.MysqlPacket object>)'
p404
sg91
S'check_error'
p405
sa(dp406
g68
S'C:\\Users\\hd\\PycharmProjects\\untitled\\web2py\\gluon\\contrib\\pymysql\\err.py'
p407
sg70
(dp408
S'errorclass'
p409
S"<class 'gluon.contrib.pymysql.err.InternalError'>"
p410
sS'errno'
p411
S'1005'
p412
sS'errval'
p413
S'u\'Can\\\'t create table `darkcloud`.`process_traps... "Foreign key constraint is incorrectly formed")\''
p414
ssg76
I107
sg77
(dp415
I98
S'def raise_mysql_exception(data):'
p416
sI99
S"    errno = struct.unpack('<h', data[1:3])[0]"
p417
sI100
S'    is_41 = data[3:4] == b"#"'
p418
sI101
S'    if is_41:'
p419
sI102
S'        # client protocol 4.1'
p420
sI103
S"        errval = data[9:].decode('utf-8', 'replace')"
p421
sI104
S'    else:'
p422
sI105
S"        errval = data[3:].decode('utf-8', 'replace')"
p423
sI106
S'    errorclass = error_map.get(errno, InternalError)'
p424
sI107
S'    raise errorclass(errno, errval)'
p425
ssg89
S'(data=\'\\xff\\xed\\x03#HY000Can\\\'t create table `darkcloud`.`process...0 "Foreign key constraint is incorrectly formed")\')'
p426
sg91
S'raise_mysql_exception'
p427
sasS'pyver'
p428
S'Python 2.7.13: C:\\python27-x64\\python.exe (prefix: C:\\python27-x64)'
p429
sS'session'
p430
g63
(S'sB\x01\x00\x00<div><table><tr><td style="font-weight:bold;vertical-align:top;">last_orderby</td><td style="vertical-align:top;">:</td><td><div>None</div></td></tr><tr><td style="font-weight:bold;vertical-align:top;">last_query</td><td style="vertical-align:top;">:</td><td><div>db.users.email!=&quot;&quot;</div></td></tr></table></div>'
tRp431
sS'etype'
p432
S"<class 'gluon.contrib.pymysql.err.InternalError'>"
p433
sS'date'
p434
S'Sat Apr 21 20:48:45 2018'
p435
sS'response'
p436
g63
(S's\x10\x1b\x00\x00<div><table><tr><td style="font-weight:bold;vertical-align:top;">body</td><td style="vertical-align:top;">:</td><td><div>&lt;cStringIO.StringO object at 0x000000000DE4BA78&gt;</div></td></tr><tr><td style="font-weight:bold;vertical-align:top;">cookies</td><td style="vertical-align:top;">:</td><td><div><table><tr><td style="font-weight:bold;vertical-align:top;">session_id_darkcloud1</td><td style="vertical-align:top;">:</td><td><div>127.0.0.1-3409330e-f8df-496c-b78c-a7fffbf52421<table><tr><td style="font-weight:bold;vertical-align:top;">comment</td><td style="vertical-align:top;">:</td><td><div></div></td></tr><tr><td style="font-weight:bold;vertical-align:top;">domain</td><td style="vertical-align:top;">:</td><td><div></div></td></tr><tr><td style="font-weight:bold;vertical-align:top;">expires</td><td style="vertical-align:top;">:</td><td><div></div></td></tr><tr><td style="font-weight:bold;vertical-align:top;">httponly</td><td style="vertical-align:top;">:</td><td><div></div></td></tr><tr><td style="font-weight:bold;vertical-align:top;">max-age</td><td style="vertical-align:top;">:</td><td><div></div></td></tr><tr><td style="font-weight:bold;vertical-align:top;">path</td><td style="vertical-align:top;">:</td><td><div>/</div></td></tr><tr><td style="font-weight:bold;vertical-align:top;">secure</td><td style="vertical-align:top;">:</td><td><div></div></td></tr><tr><td style="font-weight:bold;vertical-align:top;">version</td><td style="vertical-align:top;">:</td><td><div></div></td></tr></table></div></td></tr></table></div></td></tr><tr><td style="font-weight:bold;vertical-align:top;">delimiters</td><td style="vertical-align:top;">:</td><td><div><table><tr><td><div>{{</div></td></tr><tr><td><div>}}</div></td></tr></table></div></td></tr><tr><td style="font-weight:bold;vertical-align:top;">files</td><td style="vertical-align:top;">:</td><td><div><table></table></div></td></tr><tr><td style="font-weight:bold;vertical-align:top;">flash</td><td style="vertical-align:top;">:</td><td><div></div></td></tr><tr><td style="font-weight:bold;vertical-align:top;">form_label_separator</td><td style="vertical-align:top;">:</td><td><div></div></td></tr><tr><td style="font-weight:bold;vertical-align:top;">formstyle</td><td style="vertical-align:top;">:</td><td><div>bootstrap4_inline</div></td></tr><tr><td style="font-weight:bold;vertical-align:top;">generic_patterns</td><td style="vertical-align:top;">:</td><td><div><table><tr><td><div>*</div></td></tr></table></div></td></tr><tr><td style="font-weight:bold;vertical-align:top;">google_analytics_id</td><td style="vertical-align:top;">:</td><td><div>None</div></td></tr><tr><td style="font-weight:bold;vertical-align:top;">headers</td><td style="vertical-align:top;">:</td><td><div><table><tr><td style="font-weight:bold;vertical-align:top;">X-Powered-By</td><td style="vertical-align:top;">:</td><td><div>web2py</div></td></tr></table></div></td></tr><tr><td style="font-weight:bold;vertical-align:top;">menu</td><td style="vertical-align:top;">:</td><td><div><table></table></div></td></tr><tr><td style="font-weight:bold;vertical-align:top;">meta</td><td style="vertical-align:top;">:</td><td><div><table><tr><td style="font-weight:bold;vertical-align:top;">author</td><td style="vertical-align:top;">:</td><td><div>Your Name &lt;you@example.com&gt;</div></td></tr><tr><td style="font-weight:bold;vertical-align:top;">description</td><td style="vertical-align:top;">:</td><td><div>a cool new app</div></td></tr><tr><td style="font-weight:bold;vertical-align:top;">generator</td><td style="vertical-align:top;">:</td><td><div>Web2py Web Framework</div></td></tr><tr><td style="font-weight:bold;vertical-align:top;">keywords</td><td style="vertical-align:top;">:</td><td><div><table><tr><td><div>web2py</div></td></tr><tr><td><div>python</div></td></tr><tr><td><div>framework</div></td></tr></table></div></td></tr></table></div></td></tr><tr><td style="font-weight:bold;vertical-align:top;">models_to_run</td><td style="vertical-align:top;">:</td><td><div><table><tr><td><div>^\\w+\\.py$</div></td></tr><tr><td><div>^appadmin/\\w+\\.py$</div></td></tr><tr><td><div>^appadmin/index/\\w+\\.py$</div></td></tr></table></div></td></tr><tr><td style="font-weight:bold;vertical-align:top;">postprocessing</td><td style="vertical-align:top;">:</td><td><div><table></table></div></td></tr><tr><td style="font-weight:bold;vertical-align:top;">session_client</td><td style="vertical-align:top;">:</td><td><div>127.0.0.1</div></td></tr><tr><td style="font-weight:bold;vertical-align:top;">session_cookie_compression_level</td><td style="vertical-align:top;">:</td><td><div>None</div></td></tr><tr><td style="font-weight:bold;vertical-align:top;">session_cookie_expires</td><td style="vertical-align:top;">:</td><td><div>None</div></td></tr><tr><td style="font-weight:bold;vertical-align:top;">session_data_name</td><td style="vertical-align:top;">:</td><td><div>session_data_darkcloud1</div></td></tr><tr><td style="font-weight:bold;vertical-align:top;">session_file</td><td style="vertical-align:top;">:</td><td><div>&lt;open file &#x27;C:\\\\Users\\\\hd\\\\PycharmProjects\\\\untitled\\\\web2py\\\\applications\\\\darkcloud1\\\\sessions\\\\092\\\\1ec\\\\127.0.0.1-3409330e-f8df-496c-b78c-a7fffbf52421&#x27;, mode &#x27;rb+&#x27; at 0x000000000E3541E0&gt;</div></td></tr><tr><td style="font-weight:bold;vertical-align:top;">session_filename</td><td style="vertical-align:top;">:</td><td><div>C:\\Users\\hd\\PycharmProjects\\untitled\\web2py\\applications\\darkcloud1\\sessions\\127.0.0.1-3409330e-f8df-496c-b78c-a7fffbf52421</div></td></tr><tr><td style="font-weight:bold;vertical-align:top;">session_hash</td><td style="vertical-align:top;">:</td><td><div>da703d530979a313ea29bee45eb2c33f</div></td></tr><tr><td style="font-weight:bold;vertical-align:top;">session_id</td><td style="vertical-align:top;">:</td><td><div>127.0.0.1-3409330e-f8df-496c-b78c-a7fffbf52421</div></td></tr><tr><td style="font-weight:bold;vertical-align:top;">session_id_name</td><td style="vertical-align:top;">:</td><td><div>session_id_darkcloud1</div></td></tr><tr><td style="font-weight:bold;vertical-align:top;">session_locked</td><td style="vertical-align:top;">:</td><td><div>True</div></td></tr><tr><td style="font-weight:bold;vertical-align:top;">session_masterapp</td><td style="vertical-align:top;">:</td><td><div>darkcloud1</div></td></tr><tr><td style="font-weight:bold;vertical-align:top;">session_new</td><td style="vertical-align:top;">:</td><td><div>False</div></td></tr><tr><td style="font-weight:bold;vertical-align:top;">session_storage_type</td><td style="vertical-align:top;">:</td><td><div>file</div></td></tr><tr><td style="font-weight:bold;vertical-align:top;">status</td><td style="vertical-align:top;">:</td><td><div>200</div></td></tr><tr><td style="font-weight:bold;vertical-align:top;">view</td><td style="vertical-align:top;">:</td><td><div>appadmin/index.html</div></td></tr></table></div>'
tRp437
sS'locals'
p438
(dp439
S'errorclass'
p440
S"<class 'gluon.contrib.pymysql.err.InternalError'>"
p441
sS'errno'
p442
S'1005'
p443
sS'is_41'
p444
S'True'
p445
sS'errval'
p446
S'u\'Can\\\'t create table `darkcloud`.`process_traps... "Foreign key constraint is incorrectly formed")\''
p447
sS'data'
p448
S'\'\\xff\\xed\\x03#HY000Can\\\'t create table `darkcloud`.`process...0 "Foreign key constraint is incorrectly formed")\''
p449
sssS'traceback'
p450
S'Traceback (most recent call last):\n  File "C:\\Users\\hd\\PycharmProjects\\untitled\\web2py\\gluon\\restricted.py", line 219, in restricted\n    exec(ccode, environment)\n  File "C:\\Users\\hd\\PycharmProjects\\untitled\\web2py\\applications\\darkcloud1\\models\\db.py", line 243, in <module>\n    Field(\'child_image_path\'),\n  File "C:\\Users\\hd\\PycharmProjects\\untitled\\web2py\\gluon\\packages\\dal\\pydal\\base.py", line 586, in define_table\n    table = self.lazy_define_table(tablename, *fields, **args)\n  File "C:\\Users\\hd\\PycharmProjects\\untitled\\web2py\\gluon\\packages\\dal\\pydal\\base.py", line 620, in lazy_define_table\n    polymodel=polymodel)\n  File "C:\\Users\\hd\\PycharmProjects\\untitled\\web2py\\gluon\\packages\\dal\\pydal\\adapters\\base.py", line 797, in create_table\n    return self.migrator.create_table(*args, **kwargs)\n  File "C:\\Users\\hd\\PycharmProjects\\untitled\\web2py\\gluon\\packages\\dal\\pydal\\migrator.py", line 277, in create_table\n    self.adapter.create_sequence_and_triggers(query, table)\n  File "C:\\Users\\hd\\PycharmProjects\\untitled\\web2py\\gluon\\packages\\dal\\pydal\\adapters\\base.py", line 880, in create_sequence_and_triggers\n    self.execute(query)\n  File "C:\\Users\\hd\\PycharmProjects\\untitled\\web2py\\gluon\\packages\\dal\\pydal\\adapters\\__init__.py", line 67, in wrap\n    return f(*args, **kwargs)\n  File "C:\\Users\\hd\\PycharmProjects\\untitled\\web2py\\gluon\\packages\\dal\\pydal\\adapters\\base.py", line 412, in execute\n    rv = self.cursor.execute(command, *args[1:], **kwargs)\n  File "C:\\Users\\hd\\PycharmProjects\\untitled\\web2py\\gluon\\contrib\\pymysql\\cursors.py", line 166, in execute\n    result = self._query(query)\n  File "C:\\Users\\hd\\PycharmProjects\\untitled\\web2py\\gluon\\contrib\\pymysql\\cursors.py", line 322, in _query\n    conn.query(q)\n  File "C:\\Users\\hd\\PycharmProjects\\untitled\\web2py\\gluon\\contrib\\pymysql\\connections.py", line 835, in query\n    self._affected_rows = self._read_query_result(unbuffered=unbuffered)\n  File "C:\\Users\\hd\\PycharmProjects\\untitled\\web2py\\gluon\\contrib\\pymysql\\connections.py", line 1019, in _read_query_result\n    result.read()\n  File "C:\\Users\\hd\\PycharmProjects\\untitled\\web2py\\gluon\\contrib\\pymysql\\connections.py", line 1302, in read\n    first_packet = self.connection._read_packet()\n  File "C:\\Users\\hd\\PycharmProjects\\untitled\\web2py\\gluon\\contrib\\pymysql\\connections.py", line 981, in _read_packet\n    packet.check_error()\n  File "C:\\Users\\hd\\PycharmProjects\\untitled\\web2py\\gluon\\contrib\\pymysql\\connections.py", line 393, in check_error\n    err.raise_mysql_exception(self._data)\n  File "C:\\Users\\hd\\PycharmProjects\\untitled\\web2py\\gluon\\contrib\\pymysql\\err.py", line 107, in raise_mysql_exception\n    raise errorclass(errno, errval)\nInternalError: (1005, u\'Can\\\'t create table `darkcloud`.`process_traps` (errno: 150 "Foreign key constraint is incorrectly formed")\')\n'
p451
s.