(dp1
S'output'
p2
S'<class \'sqlite3.OperationalError\'> near ""version_os"": syntax error'
p3
sS'layer'
p4
S'C:\\Users\\hd\\PycharmProjects\\untitled\\web2py\\applications\\darkcloud1\\models\\db.py'
p5
sS'code'
p6
S'<code object <module> at 000000000F3AB1B0, file "C:\\Users\\hd\\PycharmProjects\\untitled\\web2py\\applications\\darkcloud1\\models\\db.py", line 7>'
p7
sS'snapshot'
p8
(dp9
S'exception'
p10
(dp11
S'__module__'
p12
S"'sqlite3'"
p13
sS'__getslice__'
p14
S"<method-wrapper '__getslice__' of OperationalError object>"
p15
sS'__str__'
p16
S"<method-wrapper '__str__' of OperationalError object>"
p17
sS'__reduce__'
p18
S'<built-in method __reduce__ of OperationalError object>'
p19
sS'__dict__'
p20
S'{}'
p21
sS'__sizeof__'
p22
S'<built-in method __sizeof__ of OperationalError object>'
p23
sS'__weakref__'
p24
S'None'
p25
sS'message'
p26
S'\'near ""version_os"": syntax error\''
p27
sS'__init__'
p28
S"<method-wrapper '__init__' of OperationalError object>"
p29
sS'__setattr__'
p30
S"<method-wrapper '__setattr__' of OperationalError object>"
p31
sS'__reduce_ex__'
p32
S'<built-in method __reduce_ex__ of OperationalError object>'
p33
sS'__new__'
p34
S'<built-in method __new__ of type object>'
p35
sS'__format__'
p36
S'<built-in method __format__ of OperationalError object>'
p37
sS'__class__'
p38
S"<class 'sqlite3.OperationalError'>"
p39
sS'__doc__'
p40
S'None'
p41
sS'__getitem__'
p42
S"<method-wrapper '__getitem__' of OperationalError object>"
p43
sS'__setstate__'
p44
S'<built-in method __setstate__ of OperationalError object>'
p45
sS'__getattribute__'
p46
S"<method-wrapper '__getattribute__' of OperationalError object>"
p47
sS'args'
p48
S'(\'near ""version_os"": syntax error\',)'
p49
sS'__subclasshook__'
p50
S'<built-in method __subclasshook__ of type object>'
p51
sS'__unicode__'
p52
S'<built-in method __unicode__ of OperationalError object>'
p53
sS'__delattr__'
p54
S"<method-wrapper '__delattr__' of OperationalError object>"
p55
sS'__repr__'
p56
S"<method-wrapper '__repr__' of OperationalError object>"
p57
sS'__hash__'
p58
S"<method-wrapper '__hash__' of OperationalError object>"
p59
ssS'evalue'
p60
S'near ""version_os"": syntax error'
p61
sS'request'
p62
cgluon.html
XML_unpickle
p63
(S'sY`\x00\x00<div><table><tr><td style="font-weight:bold;vertical-align:top;">ajax</td><td style="vertical-align:top;">:</td><td><div>False</div></td></tr><tr><td style="font-weight:bold;vertical-align:top;">application</td><td style="vertical-align:top;">:</td><td><div>darkcloud1</div></td></tr><tr><td style="font-weight:bold;vertical-align:top;">args</td><td style="vertical-align:top;">:</td><td><div><table></table></div></td></tr><tr><td style="font-weight:bold;vertical-align:top;">cid</td><td style="vertical-align:top;">:</td><td><div>None</div></td></tr><tr><td style="font-weight:bold;vertical-align:top;">client</td><td style="vertical-align:top;">:</td><td><div>127.0.0.1</div></td></tr><tr><td style="font-weight:bold;vertical-align:top;">controller</td><td style="vertical-align:top;">:</td><td><div>appadmin</div></td></tr><tr><td style="font-weight:bold;vertical-align:top;">cookies</td><td style="vertical-align:top;">:</td><td><div><table><tr><td style="font-weight:bold;vertical-align:top;">session_id_admin</td><td style="vertical-align:top;">:</td><td><div>127.0.0.1-8f466f2a-c9f1-497e-9554-20cbb6660840<table><tr><td style="font-weight:bold;vertical-align:top;">comment</td><td style="vertical-align:top;">:</td><td><div></div></td></tr><tr><td style="font-weight:bold;vertical-align:top;">domain</td><td style="vertical-align:top;">:</td><td><div></div></td></tr><tr><td style="font-weight:bold;vertical-align:top;">expires</td><td style="vertical-align:top;">:</td><td><div></div></td></tr><tr><td style="font-weight:bold;vertical-align:top;">httponly</td><td style="vertical-align:top;">:</td><td><div></div></td></tr><tr><td style="font-weight:bold;vertical-align:top;">max-age</td><td style="vertical-align:top;">:</td><td><div></div></td></tr><tr><td style="font-weight:bold;vertical-align:top;">path</td><td style="vertical-align:top;">:</td><td><div></div></td></tr><tr><td style="font-weight:bold;vertical-align:top;">secure</td><td style="vertical-align:top;">:</td><td><div></div></td></tr><tr><td style="font-weight:bold;vertical-align:top;">version</td><td style="vertical-align:top;">:</td><td><div></div></td></tr></table></div></td></tr><tr><td style="font-weight:bold;vertical-align:top;">session_id_darkcloud1</td><td style="vertical-align:top;">:</td><td><div>127.0.0.1-3409330e-f8df-496c-b78c-a7fffbf52421<table><tr><td style="font-weight:bold;vertical-align:top;">comment</td><td style="vertical-align:top;">:</td><td><div></div></td></tr><tr><td style="font-weight:bold;vertical-align:top;">domain</td><td style="vertical-align:top;">:</td><td><div></div></td></tr><tr><td style="font-weight:bold;vertical-align:top;">expires</td><td style="vertical-align:top;">:</td><td><div></div></td></tr><tr><td style="font-weight:bold;vertical-align:top;">httponly</td><td style="vertical-align:top;">:</td><td><div></div></td></tr><tr><td style="font-weight:bold;vertical-align:top;">max-age</td><td style="vertical-align:top;">:</td><td><div></div></td></tr><tr><td style="font-weight:bold;vertical-align:top;">path</td><td style="vertical-align:top;">:</td><td><div></div></td></tr><tr><td style="font-weight:bold;vertical-align:top;">secure</td><td style="vertical-align:top;">:</td><td><div></div></td></tr><tr><td style="font-weight:bold;vertical-align:top;">version</td><td style="vertical-align:top;">:</td><td><div></div></td></tr></table></div></td></tr><tr><td style="font-weight:bold;vertical-align:top;">session_id_welcome</td><td style="vertical-align:top;">:</td><td><div>127.0.0.1-8f655488-2f37-4452-8a7d-66d06324cb39<table><tr><td style="font-weight:bold;vertical-align:top;">comment</td><td style="vertical-align:top;">:</td><td><div></div></td></tr><tr><td style="font-weight:bold;vertical-align:top;">domain</td><td style="vertical-align:top;">:</td><td><div></div></td></tr><tr><td style="font-weight:bold;vertical-align:top;">expires</td><td style="vertical-align:top;">:</td><td><div></div></td></tr><tr><td style="font-weight:bold;vertical-align:top;">httponly</td><td style="vertical-align:top;">:</td><td><div></div></td></tr><tr><td style="font-weight:bold;vertical-align:top;">max-age</td><td style="vertical-align:top;">:</td><td><div></div></td></tr><tr><td style="font-weight:bold;vertical-align:top;">path</td><td style="vertical-align:top;">:</td><td><div></div></td></tr><tr><td style="font-weight:bold;vertical-align:top;">secure</td><td style="vertical-align:top;">:</td><td><div></div></td></tr><tr><td style="font-weight:bold;vertical-align:top;">version</td><td style="vertical-align:top;">:</td><td><div></div></td></tr></table></div></td></tr></table></div></td></tr><tr><td style="font-weight:bold;vertical-align:top;">env</td><td style="vertical-align:top;">:</td><td><div><table><tr><td style="font-weight:bold;vertical-align:top;">HTTP_ACCEPT</td><td style="vertical-align:top;">:</td><td><div>text/html, application/xhtml+xml, image/jxr, */*</div></td></tr><tr><td style="font-weight:bold;vertical-align:top;">HTTP_ACCEPT_ENCODING</td><td style="vertical-align:top;">:</td><td><div>gzip, deflate</div></td></tr><tr><td style="font-weight:bold;vertical-align:top;">HTTP_ACCEPT_LANGUAGE</td><td style="vertical-align:top;">:</td><td><div>en-US</div></td></tr><tr><td style="font-weight:bold;vertical-align:top;">HTTP_CONNECTION</td><td style="vertical-align:top;">:</td><td><div>Keep-Alive</div></td></tr><tr><td style="font-weight:bold;vertical-align:top;">HTTP_COOKIE</td><td style="vertical-align:top;">:</td><td><div>session_id_welcome=127.0.0.1-8f655488-2f37-4452-8a7d-66d06324cb39; session_id_admin=127.0.0.1-8f466f2a-c9f1-497e-9554-20cbb6660840; session_id_darkcloud1=127.0.0.1-3409330e-f8df-496c-b78c-a7fffbf52421</div></td></tr><tr><td style="font-weight:bold;vertical-align:top;">HTTP_HOST</td><td style="vertical-align:top;">:</td><td><div>127.0.0.1:8000</div></td></tr><tr><td style="font-weight:bold;vertical-align:top;">HTTP_USER_AGENT</td><td style="vertical-align:top;">:</td><td><div>Mozilla/5.0 (Windows NT 10.0; Win64; x64) AppleWebKit/537.36 (KHTML, like Gecko) Chrome/58.0.3029.110 Safari/537.36 Edge/16.16299</div></td></tr><tr><td style="font-weight:bold;vertical-align:top;">PATH_INFO</td><td style="vertical-align:top;">:</td><td><div>/darkcloud1/appadmin/index</div></td></tr><tr><td style="font-weight:bold;vertical-align:top;">QUERY_STRING</td><td style="vertical-align:top;">:</td><td><div></div></td></tr><tr><td style="font-weight:bold;vertical-align:top;">REMOTE_ADDR</td><td style="vertical-align:top;">:</td><td><div>127.0.0.1</div></td></tr><tr><td style="font-weight:bold;vertical-align:top;">REMOTE_PORT</td><td style="vertical-align:top;">:</td><td><div>50893</div></td></tr><tr><td style="font-weight:bold;vertical-align:top;">REQUEST_METHOD</td><td style="vertical-align:top;">:</td><td><div>GET</div></td></tr><tr><td style="font-weight:bold;vertical-align:top;">SCRIPT_NAME</td><td style="vertical-align:top;">:</td><td><div></div></td></tr><tr><td style="font-weight:bold;vertical-align:top;">SERVER_NAME</td><td style="vertical-align:top;">:</td><td><div>tasneem</div></td></tr><tr><td style="font-weight:bold;vertical-align:top;">SERVER_PORT</td><td style="vertical-align:top;">:</td><td><div>8000</div></td></tr><tr><td style="font-weight:bold;vertical-align:top;">SERVER_PROTOCOL</td><td style="vertical-align:top;">:</td><td><div>HTTP/1.1</div></td></tr><tr><td style="font-weight:bold;vertical-align:top;">SERVER_SOFTWARE</td><td style="vertical-align:top;">:</td><td><div>Rocket 1.2.6</div></td></tr><tr><td style="font-weight:bold;vertical-align:top;">app_folders</td><td style="vertical-align:top;">:</td><td><div>set([&#x27;C:\\\\Users\\\\hd\\\\PycharmProjects\\\\untitled\\\\web2py\\\\applications\\\\darkcloud1\\\\&#x27;, &#x27;C:\\\\Users\\\\hd\\\\PycharmProjects\\\\untitled\\\\web2py\\\\applications\\\\admin\\\\&#x27;, &#x27;C:\\\\Users\\\\hd\\\\PycharmProjects\\\\untitled\\\\web2py\\\\applications\\\\welcome\\\\&#x27;])</div></td></tr><tr><td style="font-weight:bold;vertical-align:top;">applications_parent</td><td style="vertical-align:top;">:</td><td><div>C:\\Users\\hd\\PycharmProjects\\untitled\\web2py</div></td></tr><tr><td style="font-weight:bold;vertical-align:top;">cmd_args</td><td style="vertical-align:top;">:</td><td><div><table></table></div></td></tr><tr><td style="font-weight:bold;vertical-align:top;">cmd_options</td><td style="vertical-align:top;">:</td><td><div>&lt;Values at 0x7b8ce08: {&#x27;verbose&#x27;: False, &#x27;ip&#x27;: &#x27;127.0.0.1&#x27;, &#x27;debuglevel&#x27;: 30, &#x27;with_scheduler&#x27;: False, &#x27;shutdown_timeout&#x27;: 5, &#x27;taskbar&#x27;: False, &#x27;with_coverage&#x27;: False, &#x27;pid_filename&#x27;: &#x27;httpserver.pid&#x27;, &#x27;maxthreads&#x27;: None, &#x27;softcron&#x27;: False, &#x27;server_name&#x27;: &#x27;tasneem&#x27;, &#x27;bpython&#x27;: False, &#x27;nogui&#x27;: False, &#x27;port&#x27;: 8000, &#x27;print_errors&#x27;: False, &#x27;extcron&#x27;: False, &#x27;runcron&#x27;: False, &#x27;run_system_tests&#x27;: False, &#x27;test&#x27;: None, &#x27;folder&#x27;: &#x27;C:\\\\Users\\\\hd\\\\PycharmProjects\\\\untitled\\\\web2py&#x27;, &#x27;config&#x27;: &#x27;&#x27;, &#x27;minthreads&#x27;: None, &#x27;shell&#x27;: None, &#x27;run&#x27;: &#x27;&#x27;, &#x27;log_filename&#x27;: &#x27;httpserver.log&#x27;, &#x27;profiler_dir&#x27;: None, &#x27;args&#x27;: [&#x27;&#x27;], &#x27;socket_timeout&#x27;: 5, &#x27;ssl_ca_certificate&#x27;: None, &#x27;scheduler&#x27;: None, &#x27;interfaces&#x27;: None, &#x27;ssl_private_key&#x27;: &#x27;&#x27;, &#x27;gae&#x27;: None, &#x27;password&#x27;: &#x27;******&#x27;, &#x27;request_queue_size&#x27;: 5, &#x27;ssl_certificate&#x27;: &#x27;&#x27;, &#x27;cronjob&#x27;: False, &#x27;numthreads&#x27;: None, &#x27;quiet&#x27;: False, &#x27;import_models&#x27;: False, &#x27;timeout&#x27;: 10, &#x27;plain&#x27;: False, &#x27;nobanner&#x27;: False}&gt;</div></td></tr><tr><td style="font-weight:bold;vertical-align:top;">db_sessions</td><td style="vertical-align:top;">:</td><td><div>set([])</div></td></tr><tr><td style="font-weight:bold;vertical-align:top;">debugging</td><td style="vertical-align:top;">:</td><td><div>True</div></td></tr><tr><td style="font-weight:bold;vertical-align:top;">gluon_parent</td><td style="vertical-align:top;">:</td><td><div>C:\\Users\\hd\\PycharmProjects\\untitled\\web2py</div></td></tr><tr><td style="font-weight:bold;vertical-align:top;">http_accept</td><td style="vertical-align:top;">:</td><td><div>text/html, application/xhtml+xml, image/jxr, */*</div></td></tr><tr><td style="font-weight:bold;vertical-align:top;">http_accept_encoding</td><td style="vertical-align:top;">:</td><td><div>gzip, deflate</div></td></tr><tr><td style="font-weight:bold;vertical-align:top;">http_accept_language</td><td style="vertical-align:top;">:</td><td><div>en-US</div></td></tr><tr><td style="font-weight:bold;vertical-align:top;">http_connection</td><td style="vertical-align:top;">:</td><td><div>Keep-Alive</div></td></tr><tr><td style="font-weight:bold;vertical-align:top;">http_cookie</td><td style="vertical-align:top;">:</td><td><div>session_id_welcome=127.0.0.1-8f655488-2f37-4452-8a7d-66d06324cb39; session_id_admin=127.0.0.1-8f466f2a-c9f1-497e-9554-20cbb6660840; session_id_darkcloud1=127.0.0.1-3409330e-f8df-496c-b78c-a7fffbf52421</div></td></tr><tr><td style="font-weight:bold;vertical-align:top;">http_host</td><td style="vertical-align:top;">:</td><td><div>127.0.0.1:8000</div></td></tr><tr><td style="font-weight:bold;vertical-align:top;">http_user_agent</td><td style="vertical-align:top;">:</td><td><div>Mozilla/5.0 (Windows NT 10.0; Win64; x64) AppleWebKit/537.36 (KHTML, like Gecko) Chrome/58.0.3029.110 Safari/537.36 Edge/16.16299</div></td></tr><tr><td style="font-weight:bold;vertical-align:top;">is_jython</td><td style="vertical-align:top;">:</td><td><div>False</div></td></tr><tr><td style="font-weight:bold;vertical-align:top;">is_py2</td><td style="vertical-align:top;">:</td><td><div>True</div></td></tr><tr><td style="font-weight:bold;vertical-align:top;">is_pypy</td><td style="vertical-align:top;">:</td><td><div>False</div></td></tr><tr><td style="font-weight:bold;vertical-align:top;">is_source</td><td style="vertical-align:top;">:</td><td><div>True</div></td></tr><tr><td style="font-weight:bold;vertical-align:top;">local_hosts</td><td style="vertical-align:top;">:</td><td><div><table><tr><td><div>192.168.153.1</div></td></tr><tr><td><div>fe80::5cf7:579:cc61:1cf0%22</div></td></tr><tr><td><div>fde4:fb5d:52ec:c500:6937:93a6:3759:405</div></td></tr><tr><td><div>fe80::41b4:b3f5:1301:13c2%10</div></td></tr><tr><td><div>fe80::d18c:aaa8:7042:24e8%15</div></td></tr><tr><td><div>::ffff:127.0.0.1</div></td></tr><tr><td><div>::1</div></td></tr><tr><td><div>192.168.188.1</div></td></tr><tr><td><div>192.168.50.1</div></td></tr><tr><td><div>fe80::4807:4abc:a288:fdb3%2</div></td></tr><tr><td><div>tasneem</div></td></tr><tr><td><div>fe80::ec74:5042:7a11:bddb%9</div></td></tr><tr><td><div>192.168.108.1</div></td></tr><tr><td><div>fde4:fb5d:52ec:c500:d18c:aaa8:7042:24e8</div></td></tr><tr><td><div>fe80::70c1:6b8f:528a:de5b%4</div></td></tr><tr><td><div>192.168.1.7</div></td></tr><tr><td><div>127.0.0.1</div></td></tr><tr><td><div>192.168.56.1</div></td></tr></table></div></td></tr><tr><td style="font-weight:bold;vertical-align:top;">path_info</td><td style="vertical-align:top;">:</td><td><div>/darkcloud1/appadmin/index</div></td></tr><tr><td style="font-weight:bold;vertical-align:top;">query_string</td><td style="vertical-align:top;">:</td><td><div></div></td></tr><tr><td style="font-weight:bold;vertical-align:top;">remote_addr</td><td style="vertical-align:top;">:</td><td><div>127.0.0.1</div></td></tr><tr><td style="font-weight:bold;vertical-align:top;">remote_port</td><td style="vertical-align:top;">:</td><td><div>50893</div></td></tr><tr><td style="font-weight:bold;vertical-align:top;">request_method</td><td style="vertical-align:top;">:</td><td><div>GET</div></td></tr><tr><td style="font-weight:bold;vertical-align:top;">request_uri</td><td style="vertical-align:top;">:</td><td><div>/darkcloud1/appadmin/index</div></td></tr><tr><td style="font-weight:bold;vertical-align:top;">script_name</td><td style="vertical-align:top;">:</td><td><div></div></td></tr><tr><td style="font-weight:bold;vertical-align:top;">server_name</td><td style="vertical-align:top;">:</td><td><div>tasneem</div></td></tr><tr><td style="font-weight:bold;vertical-align:top;">server_port</td><td style="vertical-align:top;">:</td><td><div>8000</div></td></tr><tr><td style="font-weight:bold;vertical-align:top;">server_protocol</td><td style="vertical-align:top;">:</td><td><div>HTTP/1.1</div></td></tr><tr><td style="font-weight:bold;vertical-align:top;">server_software</td><td style="vertical-align:top;">:</td><td><div>Rocket 1.2.6</div></td></tr><tr><td style="font-weight:bold;vertical-align:top;">web2py_path</td><td style="vertical-align:top;">:</td><td><div>C:\\Users\\hd\\PycharmProjects\\untitled\\web2py</div></td></tr><tr><td style="font-weight:bold;vertical-align:top;">web2py_version</td><td style="vertical-align:top;">:</td><td><div>2.16.1-stable+timestamp.2017.11.14.05.54.25</div></td></tr><tr><td style="font-weight:bold;vertical-align:top;">wsgi.errors</td><td style="vertical-align:top;">:</td><td><div>&lt;open file &#x27;&lt;stderr&gt;&#x27;, mode &#x27;w&#x27; at 0x00000000062EB150&gt;</div></td></tr><tr><td style="font-weight:bold;vertical-align:top;">wsgi.file_wrapper</td><td style="vertical-align:top;">:</td><td><div>&lt;class wsgiref.util.FileWrapper at 0x0000000007B4B348&gt;</div></td></tr><tr><td style="font-weight:bold;vertical-align:top;">wsgi.input</td><td style="vertical-align:top;">:</td><td><div>&lt;socket._fileobject object at 0x000000000EFB94F8&gt;</div></td></tr><tr><td style="font-weight:bold;vertical-align:top;">wsgi.multiprocess</td><td style="vertical-align:top;">:</td><td><div>False</div></td></tr><tr><td style="font-weight:bold;vertical-align:top;">wsgi.multithread</td><td style="vertical-align:top;">:</td><td><div>True</div></td></tr><tr><td style="font-weight:bold;vertical-align:top;">wsgi.run_once</td><td style="vertical-align:top;">:</td><td><div>False</div></td></tr><tr><td style="font-weight:bold;vertical-align:top;">wsgi.url_scheme</td><td style="vertical-align:top;">:</td><td><div>http</div></td></tr><tr><td style="font-weight:bold;vertical-align:top;">wsgi.version</td><td style="vertical-align:top;">:</td><td><div><table><tr><td><div>1</div></td></tr><tr><td><div>0</div></td></tr></table></div></td></tr><tr><td style="font-weight:bold;vertical-align:top;">wsgi_errors</td><td style="vertical-align:top;">:</td><td><div>&lt;open file &#x27;&lt;stderr&gt;&#x27;, mode &#x27;w&#x27; at 0x00000000062EB150&gt;</div></td></tr><tr><td style="font-weight:bold;vertical-align:top;">wsgi_file_wrapper</td><td style="vertical-align:top;">:</td><td><div>&lt;class wsgiref.util.FileWrapper at 0x0000000007B4B348&gt;</div></td></tr><tr><td style="font-weight:bold;vertical-align:top;">wsgi_input</td><td style="vertical-align:top;">:</td><td><div>&lt;socket._fileobject object at 0x000000000EFB94F8&gt;</div></td></tr><tr><td style="font-weight:bold;vertical-align:top;">wsgi_multiprocess</td><td style="vertical-align:top;">:</td><td><div>False</div></td></tr><tr><td style="font-weight:bold;vertical-align:top;">wsgi_multithread</td><td style="vertical-align:top;">:</td><td><div>True</div></td></tr><tr><td style="font-weight:bold;vertical-align:top;">wsgi_run_once</td><td style="vertical-align:top;">:</td><td><div>False</div></td></tr><tr><td style="font-weight:bold;vertical-align:top;">wsgi_url_scheme</td><td style="vertical-align:top;">:</td><td><div>http</div></td></tr><tr><td style="font-weight:bold;vertical-align:top;">wsgi_version</td><td style="vertical-align:top;">:</td><td><div><table><tr><td><div>1</div></td></tr><tr><td><div>0</div></td></tr></table></div></td></tr></table></div></td></tr><tr><td style="font-weight:bold;vertical-align:top;">extension</td><td style="vertical-align:top;">:</td><td><div>html</div></td></tr><tr><td style="font-weight:bold;vertical-align:top;">folder</td><td style="vertical-align:top;">:</td><td><div>C:\\Users\\hd\\PycharmProjects\\untitled\\web2py\\applications\\darkcloud1\\</div></td></tr><tr><td style="font-weight:bold;vertical-align:top;">function</td><td style="vertical-align:top;">:</td><td><div>index</div></td></tr><tr><td style="font-weight:bold;vertical-align:top;">global_settings</td><td style="vertical-align:top;">:</td><td><div><table><tr><td style="font-weight:bold;vertical-align:top;">app_folders</td><td style="vertical-align:top;">:</td><td><div>set([&#x27;C:\\\\Users\\\\hd\\\\PycharmProjects\\\\untitled\\\\web2py\\\\applications\\\\darkcloud1\\\\&#x27;, &#x27;C:\\\\Users\\\\hd\\\\PycharmProjects\\\\untitled\\\\web2py\\\\applications\\\\admin\\\\&#x27;, &#x27;C:\\\\Users\\\\hd\\\\PycharmProjects\\\\untitled\\\\web2py\\\\applications\\\\welcome\\\\&#x27;])</div></td></tr><tr><td style="font-weight:bold;vertical-align:top;">applications_parent</td><td style="vertical-align:top;">:</td><td><div>C:\\Users\\hd\\PycharmProjects\\untitled\\web2py</div></td></tr><tr><td style="font-weight:bold;vertical-align:top;">cmd_args</td><td style="vertical-align:top;">:</td><td><div><table></table></div></td></tr><tr><td style="font-weight:bold;vertical-align:top;">cmd_options</td><td style="vertical-align:top;">:</td><td><div>&lt;Values at 0x7b8ce08: {&#x27;verbose&#x27;: False, &#x27;ip&#x27;: &#x27;127.0.0.1&#x27;, &#x27;debuglevel&#x27;: 30, &#x27;with_scheduler&#x27;: False, &#x27;shutdown_timeout&#x27;: 5, &#x27;taskbar&#x27;: False, &#x27;with_coverage&#x27;: False, &#x27;pid_filename&#x27;: &#x27;httpserver.pid&#x27;, &#x27;maxthreads&#x27;: None, &#x27;softcron&#x27;: False, &#x27;server_name&#x27;: &#x27;tasneem&#x27;, &#x27;bpython&#x27;: False, &#x27;nogui&#x27;: False, &#x27;port&#x27;: 8000, &#x27;print_errors&#x27;: False, &#x27;extcron&#x27;: False, &#x27;runcron&#x27;: False, &#x27;run_system_tests&#x27;: False, &#x27;test&#x27;: None, &#x27;folder&#x27;: &#x27;C:\\\\Users\\\\hd\\\\PycharmProjects\\\\untitled\\\\web2py&#x27;, &#x27;config&#x27;: &#x27;&#x27;, &#x27;minthreads&#x27;: None, &#x27;shell&#x27;: None, &#x27;run&#x27;: &#x27;&#x27;, &#x27;log_filename&#x27;: &#x27;httpserver.log&#x27;, &#x27;profiler_dir&#x27;: None, &#x27;args&#x27;: [&#x27;&#x27;], &#x27;socket_timeout&#x27;: 5, &#x27;ssl_ca_certificate&#x27;: None, &#x27;scheduler&#x27;: None, &#x27;interfaces&#x27;: None, &#x27;ssl_private_key&#x27;: &#x27;&#x27;, &#x27;gae&#x27;: None, &#x27;password&#x27;: &#x27;******&#x27;, &#x27;request_queue_size&#x27;: 5, &#x27;ssl_certificate&#x27;: &#x27;&#x27;, &#x27;cronjob&#x27;: False, &#x27;numthreads&#x27;: None, &#x27;quiet&#x27;: False, &#x27;import_models&#x27;: False, &#x27;timeout&#x27;: 10, &#x27;plain&#x27;: False, &#x27;nobanner&#x27;: False}&gt;</div></td></tr><tr><td style="font-weight:bold;vertical-align:top;">db_sessions</td><td style="vertical-align:top;">:</td><td><div>set([])</div></td></tr><tr><td style="font-weight:bold;vertical-align:top;">debugging</td><td style="vertical-align:top;">:</td><td><div>True</div></td></tr><tr><td style="font-weight:bold;vertical-align:top;">gluon_parent</td><td style="vertical-align:top;">:</td><td><div>C:\\Users\\hd\\PycharmProjects\\untitled\\web2py</div></td></tr><tr><td style="font-weight:bold;vertical-align:top;">is_jython</td><td style="vertical-align:top;">:</td><td><div>False</div></td></tr><tr><td style="font-weight:bold;vertical-align:top;">is_py2</td><td style="vertical-align:top;">:</td><td><div>True</div></td></tr><tr><td style="font-weight:bold;vertical-align:top;">is_pypy</td><td style="vertical-align:top;">:</td><td><div>False</div></td></tr><tr><td style="font-weight:bold;vertical-align:top;">is_source</td><td style="vertical-align:top;">:</td><td><div>True</div></td></tr><tr><td style="font-weight:bold;vertical-align:top;">local_hosts</td><td style="vertical-align:top;">:</td><td><div><table><tr><td><div>192.168.153.1</div></td></tr><tr><td><div>fe80::5cf7:579:cc61:1cf0%22</div></td></tr><tr><td><div>fde4:fb5d:52ec:c500:6937:93a6:3759:405</div></td></tr><tr><td><div>fe80::41b4:b3f5:1301:13c2%10</div></td></tr><tr><td><div>fe80::d18c:aaa8:7042:24e8%15</div></td></tr><tr><td><div>::ffff:127.0.0.1</div></td></tr><tr><td><div>::1</div></td></tr><tr><td><div>192.168.188.1</div></td></tr><tr><td><div>192.168.50.1</div></td></tr><tr><td><div>fe80::4807:4abc:a288:fdb3%2</div></td></tr><tr><td><div>tasneem</div></td></tr><tr><td><div>fe80::ec74:5042:7a11:bddb%9</div></td></tr><tr><td><div>192.168.108.1</div></td></tr><tr><td><div>fde4:fb5d:52ec:c500:d18c:aaa8:7042:24e8</div></td></tr><tr><td><div>fe80::70c1:6b8f:528a:de5b%4</div></td></tr><tr><td><div>192.168.1.7</div></td></tr><tr><td><div>127.0.0.1</div></td></tr><tr><td><div>192.168.56.1</div></td></tr></table></div></td></tr><tr><td style="font-weight:bold;vertical-align:top;">web2py_version</td><td style="vertical-align:top;">:</td><td><div>2.16.1-stable+timestamp.2017.11.14.05.54.25</div></td></tr></table></div></td></tr><tr><td style="font-weight:bold;vertical-align:top;">is_https</td><td style="vertical-align:top;">:</td><td><div>False</div></td></tr><tr><td style="font-weight:bold;vertical-align:top;">is_local</td><td style="vertical-align:top;">:</td><td><div>True</div></td></tr><tr><td style="font-weight:bold;vertical-align:top;">is_restful</td><td style="vertical-align:top;">:</td><td><div>False</div></td></tr><tr><td style="font-weight:bold;vertical-align:top;">is_scheduler</td><td style="vertical-align:top;">:</td><td><div>False</div></td></tr><tr><td style="font-weight:bold;vertical-align:top;">is_shell</td><td style="vertical-align:top;">:</td><td><div>False</div></td></tr><tr><td style="font-weight:bold;vertical-align:top;">now</td><td style="vertical-align:top;">:</td><td><div>datetime.datetime(2018, 4, 21, 4, 18, 20, 879000)</div></td></tr><tr><td style="font-weight:bold;vertical-align:top;">raw_args</td><td style="vertical-align:top;">:</td><td><div></div></td></tr><tr><td style="font-weight:bold;vertical-align:top;">raw_extension</td><td style="vertical-align:top;">:</td><td><div>None</div></td></tr><tr><td style="font-weight:bold;vertical-align:top;">url</td><td style="vertical-align:top;">:</td><td><div>/darkcloud1/appadmin/index</div></td></tr><tr><td style="font-weight:bold;vertical-align:top;">utcnow</td><td style="vertical-align:top;">:</td><td><div>datetime.datetime(2018, 4, 21, 2, 18, 20, 879000)</div></td></tr><tr><td style="font-weight:bold;vertical-align:top;">wsgi</td><td style="vertical-align:top;">:</td><td><div>&lt;gluon.main.LazyWSGI object at 0x000000000E443E80&gt;</div></td></tr></table></div>'
tRp64
sS'frames'
p65
(lp66
(dp67
S'file'
p68
S'C:\\Users\\hd\\PycharmProjects\\untitled\\web2py\\gluon\\restricted.py'
p69
sS'dump'
p70
(dp71
S'environment'
p72
S"{'A': <class 'gluon.html.A'>, 'ANY_OF': <class 'gluon.validators.ANY_OF'>, 'ASSIGNJS': <function ASSIGNJS>, 'AppConfig': <function AppConfig>, 'Auth': <class 'gluon.tools.Auth'>, 'B': <class 'gluon.html.B'>, 'BEAUTIFY': <class 'gluon.html.BEAUTIFY'>, 'BODY': <class 'gluon.html.BODY'>, 'BR': <class 'gluon.html.BR'>, 'BUTTON': <class 'gluon.html.BUTTON'>, ...}"
p73
sS'ccode'
p74
S'<code object <module> at 000000000F3AB1B0, file ...py\\applications\\darkcloud1\\models\\db.py", line 7>'
p75
ssS'lnum'
p76
I219
sS'lines'
p77
(dp78
I214
S'    if environment is None:'
p79
sI215
S'        environment = {}'
p80
sI216
S"    environment['__file__'] = layer"
p81
sI217
S"    environment['__name__'] = '__restricted__'"
p82
sI218
S'    try:'
p83
sI219
S'        exec(ccode, environment)'
p84
sI220
S'    except HTTP:'
p85
sI221
S'        raise'
p86
sI222
S'    except RestrictedError:'
p87
sI223
S'        # do not encapsulate (obfuscate) the original RestrictedError'
p88
ssS'call'
p89
S'(ccode=<code object <module> at 000000000F3AB1B0, file ...py\\applications\\darkcloud1\\models\\db.py", line 7>, environment={\'A\': <class \'gluon.html.A\'>, \'ANY_OF\': <class \'gluon.validators.ANY_OF\'>, \'ASSIGNJS\': <function ASSIGNJS>, \'AppConfig\': <function AppConfig>, \'Auth\': <class \'gluon.tools.Auth\'>, \'B\': <class \'gluon.html.B\'>, \'BEAUTIFY\': <class \'gluon.html.BEAUTIFY\'>, \'BODY\': <class \'gluon.html.BODY\'>, \'BR\': <class \'gluon.html.BR\'>, \'BUTTON\': <class \'gluon.html.BUTTON\'>, ...}, layer=r\'C:\\Users\\hd\\PycharmProjects\\untitled\\web2py\\applications\\darkcloud1\\models\\db.py\', scode=<code object <module> at 000000000F3AB1B0, file ...py\\applications\\darkcloud1\\models\\db.py", line 7>)'
p90
sS'func'
p91
S'restricted'
p92
sa(dp93
g68
S'C:\\Users\\hd\\PycharmProjects\\untitled\\web2py\\applications\\darkcloud1\\models\\db.py'
p94
sg70
(dp95
S'primarykey'
p96
S'undefined'
p97
ssg76
I179
sg77
(dp98
I174
S"   Field('ip', notnull = True,requires=IS_NOT_EMPTY()),"
p99
sI175
S"   Field('owner_ID',db.users.email, notnull = True,requires=IS_NOT_EMPTY()),"
p100
sI176
S"   Field('version_os',requires=IS_NOT_EMPTY()),"
p101
sI177
S"   Field('enrollement_stamp',requires=(IS_NOT_EMPTY(),IS_DATE('%y-%m-%d'))),"
p102
sI178
S"   Field('enrolled_flag', 'boolean'),"
p103
sI179
S"    primarykey=['endpoint_id'],"
p104
sI180
S')'
sI181
S''
sI182
S'db.define_table('
p105
sI183
S"   'sensors',"
p106
ssg89
S'()'
p107
sg91
S'<module>'
p108
sa(dp109
g68
S'C:\\Users\\hd\\PycharmProjects\\untitled\\web2py\\gluon\\packages\\dal\\pydal\\base.py'
p110
sg70
(dp111
S'fields'
p112
S'(<pydal.objects.Field object>, <pydal.objects.Field object>, <pydal.objects.Field object>, <pydal.objects.Field object>, <pydal.objects.Field object>, <pydal.objects.Field object>)'
p113
sS'self'
p114
S'<DAL uri="sqlite://storage.sqlite">'
p115
sS'args'
p116
S"{'primarykey': ['endpoint_id']}"
p117
sS'tablename'
p118
S"'endpoint_agents'"
p119
sS'table'
p120
g97
sS'self.lazy_define_table'
p121
S'<bound method DAL.lazy_define_table of <DAL uri="sqlite://storage.sqlite">>'
p122
ssg76
I586
sg77
(dp123
I581
S'                                  (tablename, invalid_args))'
p124
sI582
S'        if self._lazy_tables and tablename not in self._LAZY_TABLES:'
p125
sI583
S'            self._LAZY_TABLES[tablename] = (tablename, fields, args)'
p126
sI584
S'            table = None'
p127
sI585
S'        else:'
p128
sI586
S'            table = self.lazy_define_table(tablename, *fields, **args)'
p129
sI587
S'        if tablename not in self.tables:'
p130
sI588
S'            self.tables.append(tablename)'
p131
sI589
S'        return table'
p132
sI590
S''
ssg89
S'(self=<DAL uri="sqlite://storage.sqlite">, tablename=\'endpoint_agents\', *fields=(<pydal.objects.Field object>, <pydal.objects.Field object>, <pydal.objects.Field object>, <pydal.objects.Field object>, <pydal.objects.Field object>, <pydal.objects.Field object>), **args={\'primarykey\': [\'endpoint_id\']})'
p133
sg91
S'define_table'
p134
sa(dp135
g68
S'C:\\Users\\hd\\PycharmProjects\\untitled\\web2py\\gluon\\packages\\dal\\pydal\\base.py'
p136
sg70
(dp137
S'polymodel'
p138
S'None'
p139
ssg76
I620
sg77
(dp140
I615
S'            try:'
p141
sI616
S'                GLOBAL_LOCKER.acquire()'
p142
sI617
S'                self._adapter.create_table('
p143
sI618
S'                    table, migrate=migrate,'
p144
sI619
S'                    fake_migrate=fake_migrate,'
p145
sI620
S'                    polymodel=polymodel)'
p146
sI621
S'            finally:'
p147
sI622
S'                GLOBAL_LOCKER.release()'
p148
sI623
S'        else:'
p149
sI624
S'            table._dbt = None'
p150
ssg89
S'(self=<DAL uri="sqlite://storage.sqlite">, tablename=\'endpoint_agents\', *fields=(<pydal.objects.Field object>, <pydal.objects.Field object>, <pydal.objects.Field object>, <pydal.objects.Field object>, <pydal.objects.Field object>, <pydal.objects.Field object>), **args={\'primarykey\': [\'endpoint_id\']})'
p151
sg91
S'lazy_define_table'
p152
sa(dp153
g68
S'C:\\Users\\hd\\PycharmProjects\\untitled\\web2py\\gluon\\packages\\dal\\pydal\\adapters\\base.py'
p154
sg70
(dp155
S'self'
p156
S'<pydal.adapters.sqlite.SQLite object>'
p157
sS'args'
p158
S'(<Table endpoint_agents (endpoint_id, ip, owner_ID, version_os, enrollement_stamp, enrolled_flag)>,)'
p159
sS'self.migrator'
p160
S'<pydal.migrator.Migrator object>'
p161
sS'self.migrator.create_table'
p162
S'<bound method Migrator.create_table of <pydal.migrator.Migrator object>>'
p163
sS'kwargs'
p164
S"{'fake_migrate': False, 'migrate': True, 'polymodel': None}"
p165
ssg76
I797
sg77
(dp166
I800
S'        super(SQLAdapter, self)._drop_table_cleanup(table)'
p167
sI801
S'        if table._dbt:'
p168
sI792
S''
sI793
S'    def bulk_insert(self, table, items):'
p169
sI794
S'        return [self.insert(table, item) for item in items]'
p170
sI795
S''
sI796
S'    def create_table(self, *args, **kwargs):'
p171
sI797
S'        return self.migrator.create_table(*args, **kwargs)'
p172
sI798
S''
sI799
S'    def _drop_table_cleanup(self, table):'
p173
ssg89
S"(self=<pydal.adapters.sqlite.SQLite object>, *args=(<Table endpoint_agents (endpoint_id, ip, owner_ID, version_os, enrollement_stamp, enrolled_flag)>,), **kwargs={'fake_migrate': False, 'migrate': True, 'polymodel': None})"
p174
sg91
S'create_table'
p175
sa(dp176
g68
S'C:\\Users\\hd\\PycharmProjects\\untitled\\web2py\\gluon\\packages\\dal\\pydal\\migrator.py'
p177
sg70
(dp178
S'query'
p179
S'\'CREATE TABLE "endpoint_agents"(\\n    "endpoint_id..._flag" CHAR(1),\\n    PRIMARY KEY("endpoint_id")) ;\''
p180
sS'self'
p181
S'<pydal.migrator.Migrator object>'
p182
sS'self.adapter'
p183
S'<pydal.adapters.sqlite.SQLite object>'
p184
sS'self.adapter.create_sequence_and_triggers'
p185
S'<bound method SQLite.create_sequence_and_triggers of <pydal.adapters.sqlite.SQLite object>>'
p186
sS'table'
p187
S'<Table endpoint_agents (endpoint_id, ip, owner_ID, version_os, enrollement_stamp, enrolled_flag)>'
p188
ssg76
I277
sg77
(dp189
I272
S'            if table._dbt:'
p190
sI273
S"                self.log('timestamp: %s\\n%s\\n'"
p191
sI274
S'                         % (datetime.datetime.today().isoformat(),'
p192
sI275
S'                            query), table)'
p193
sI276
S'            if not fake_migrate:'
p194
sI277
S'                self.adapter.create_sequence_and_triggers(query, table)'
p195
sI278
S'                db.commit()'
p196
sI279
S'                # Postgres geom fields are added now,'
p197
sI280
S'                # after the table has been created'
p198
sI281
S'                for query in postcreation_fields:'
p199
ssg89
S'(self=<pydal.migrator.Migrator object>, table=<Table endpoint_agents (endpoint_id, ip, owner_ID, version_os, enrollement_stamp, enrolled_flag)>, migrate=True, fake_migrate=False, polymodel=None)'
p200
sg91
g175
sa(dp201
g68
S'C:\\Users\\hd\\PycharmProjects\\untitled\\web2py\\gluon\\packages\\dal\\pydal\\adapters\\base.py'
p202
sg70
(dp203
S'query'
p204
S'\'CREATE TABLE "endpoint_agents"(\\n    "endpoint_id..._flag" CHAR(1),\\n    PRIMARY KEY("endpoint_id")) ;\''
p205
sS'self'
p206
S'<pydal.adapters.sqlite.SQLite object>'
p207
sS'self.execute'
p208
S'<bound method SQLite.wrap of <pydal.adapters.sqlite.SQLite object>>'
p209
ssg76
I880
sg77
(dp210
I875
S'    @with_connection'
p211
sI876
S'    def rollback_prepared(self, key):'
p212
sI877
S'        self.connection.rollback()'
p213
sI878
S''
sI879
S'    def create_sequence_and_triggers(self, query, table, **args):'
p214
sI880
S'        self.execute(query)'
p215
sI881
S''
sI882
S'    def sqlsafe_table(self, tablename, original_tablename=None):'
p216
sI883
S'        if original_tablename is not None:'
p217
sI884
S'            return self.dialect.alias(original_tablename, tablename)'
p218
ssg89
S'(self=<pydal.adapters.sqlite.SQLite object>, query=\'CREATE TABLE "endpoint_agents"(\\n    "endpoint_id..._flag" CHAR(1),\\n    PRIMARY KEY("endpoint_id")) ;\', table=<Table endpoint_agents (endpoint_id, ip, owner_ID, version_os, enrollement_stamp, enrolled_flag)>, **args={})'
p219
sg91
S'create_sequence_and_triggers'
p220
sa(dp221
g68
S'C:\\Users\\hd\\PycharmProjects\\untitled\\web2py\\gluon\\packages\\dal\\pydal\\adapters\\__init__.py'
p222
sg70
(dp223
S'kwargs'
p224
g21
sS'args'
p225
S'(<pydal.adapters.sqlite.SQLite object>, \'CREATE TABLE "endpoint_agents"(\\n    "endpoint_id..._flag" CHAR(1),\\n    PRIMARY KEY("endpoint_id")) ;\')'
p226
sS'f'
S'<function execute>'
p227
ssg76
I67
sg77
(dp228
I64
S'            if len(args) > 1:'
p229
sI65
S'                raise ValueError(args[1])'
p230
sI66
S"            raise RuntimeError('no connection available')"
p231
sI67
S'        return f(*args, **kwargs)'
p232
sI68
S'    return wrap'
p233
sI69
S''
sI70
S''
sI71
S'from .base import SQLAdapter, NoSQLAdapter'
p234
sI62
S'    def wrap(*args, **kwargs):'
p235
sI63
S'        if not args[0].connection:'
p236
ssg89
S'(*args=(<pydal.adapters.sqlite.SQLite object>, \'CREATE TABLE "endpoint_agents"(\\n    "endpoint_id..._flag" CHAR(1),\\n    PRIMARY KEY("endpoint_id")) ;\'), **kwargs={})'
p237
sg91
S'wrap'
p238
sa(dp239
g68
S'C:\\Users\\hd\\PycharmProjects\\untitled\\web2py\\gluon\\packages\\dal\\pydal\\adapters\\base.py'
p240
sg70
(dp241
S'rv'
p242
g97
sS'self'
p243
S'<pydal.adapters.sqlite.SQLite object>'
p244
sS'args'
p245
S'(\'CREATE TABLE "endpoint_agents"(\\n    "endpoint_id..._flag" CHAR(1),\\n    PRIMARY KEY("endpoint_id")) ;\',)'
p246
sS'self.cursor'
p247
S'<sqlite3.Cursor object>'
p248
sS'command'
p249
S'\'CREATE TABLE "endpoint_agents"(\\n    "endpoint_id..._flag" CHAR(1),\\n    PRIMARY KEY("endpoint_id")) ;\''
p250
sS'self.cursor.execute'
p251
S'<built-in method execute of sqlite3.Cursor object>'
p252
sS'kwargs'
p253
g21
ssg76
I412
sg77
(dp254
I416
S''
sI407
S'    def execute(self, *args, **kwargs):'
p255
sI408
S'        command = self.filter_sql_command(args[0])'
p256
sI409
S'        handlers = self._build_handlers_for_execution()'
p257
sI410
S'        for handler in handlers:'
p258
sI411
S'            handler.before_execute(command)'
p259
sI412
S'        rv = self.cursor.execute(command, *args[1:], **kwargs)'
p260
sI413
S'        for handler in handlers:'
p261
sI414
S'            handler.after_execute(command)'
p262
sI415
S'        return rv'
p263
ssg89
S'(self=<pydal.adapters.sqlite.SQLite object>, *args=(\'CREATE TABLE "endpoint_agents"(\\n    "endpoint_id..._flag" CHAR(1),\\n    PRIMARY KEY("endpoint_id")) ;\',), **kwargs={})'
p264
sg91
S'execute'
p265
sasS'pyver'
p266
S'Python 2.7.13: C:\\python27-x64\\python.exe (prefix: C:\\python27-x64)'
p267
sS'session'
p268
g63
(S'sB\x01\x00\x00<div><table><tr><td style="font-weight:bold;vertical-align:top;">last_orderby</td><td style="vertical-align:top;">:</td><td><div>None</div></td></tr><tr><td style="font-weight:bold;vertical-align:top;">last_query</td><td style="vertical-align:top;">:</td><td><div>db.users.email!=&quot;&quot;</div></td></tr></table></div>'
tRp269
sS'etype'
p270
S"<class 'sqlite3.OperationalError'>"
p271
sS'date'
p272
S'Sat Apr 21 04:18:21 2018'
p273
sS'response'
p274
g63
(S's\x10\x1b\x00\x00<div><table><tr><td style="font-weight:bold;vertical-align:top;">body</td><td style="vertical-align:top;">:</td><td><div>&lt;cStringIO.StringO object at 0x000000000FD67030&gt;</div></td></tr><tr><td style="font-weight:bold;vertical-align:top;">cookies</td><td style="vertical-align:top;">:</td><td><div><table><tr><td style="font-weight:bold;vertical-align:top;">session_id_darkcloud1</td><td style="vertical-align:top;">:</td><td><div>127.0.0.1-3409330e-f8df-496c-b78c-a7fffbf52421<table><tr><td style="font-weight:bold;vertical-align:top;">comment</td><td style="vertical-align:top;">:</td><td><div></div></td></tr><tr><td style="font-weight:bold;vertical-align:top;">domain</td><td style="vertical-align:top;">:</td><td><div></div></td></tr><tr><td style="font-weight:bold;vertical-align:top;">expires</td><td style="vertical-align:top;">:</td><td><div></div></td></tr><tr><td style="font-weight:bold;vertical-align:top;">httponly</td><td style="vertical-align:top;">:</td><td><div></div></td></tr><tr><td style="font-weight:bold;vertical-align:top;">max-age</td><td style="vertical-align:top;">:</td><td><div></div></td></tr><tr><td style="font-weight:bold;vertical-align:top;">path</td><td style="vertical-align:top;">:</td><td><div>/</div></td></tr><tr><td style="font-weight:bold;vertical-align:top;">secure</td><td style="vertical-align:top;">:</td><td><div></div></td></tr><tr><td style="font-weight:bold;vertical-align:top;">version</td><td style="vertical-align:top;">:</td><td><div></div></td></tr></table></div></td></tr></table></div></td></tr><tr><td style="font-weight:bold;vertical-align:top;">delimiters</td><td style="vertical-align:top;">:</td><td><div><table><tr><td><div>{{</div></td></tr><tr><td><div>}}</div></td></tr></table></div></td></tr><tr><td style="font-weight:bold;vertical-align:top;">files</td><td style="vertical-align:top;">:</td><td><div><table></table></div></td></tr><tr><td style="font-weight:bold;vertical-align:top;">flash</td><td style="vertical-align:top;">:</td><td><div></div></td></tr><tr><td style="font-weight:bold;vertical-align:top;">form_label_separator</td><td style="vertical-align:top;">:</td><td><div></div></td></tr><tr><td style="font-weight:bold;vertical-align:top;">formstyle</td><td style="vertical-align:top;">:</td><td><div>bootstrap4_inline</div></td></tr><tr><td style="font-weight:bold;vertical-align:top;">generic_patterns</td><td style="vertical-align:top;">:</td><td><div><table><tr><td><div>*</div></td></tr></table></div></td></tr><tr><td style="font-weight:bold;vertical-align:top;">google_analytics_id</td><td style="vertical-align:top;">:</td><td><div>None</div></td></tr><tr><td style="font-weight:bold;vertical-align:top;">headers</td><td style="vertical-align:top;">:</td><td><div><table><tr><td style="font-weight:bold;vertical-align:top;">X-Powered-By</td><td style="vertical-align:top;">:</td><td><div>web2py</div></td></tr></table></div></td></tr><tr><td style="font-weight:bold;vertical-align:top;">menu</td><td style="vertical-align:top;">:</td><td><div><table></table></div></td></tr><tr><td style="font-weight:bold;vertical-align:top;">meta</td><td style="vertical-align:top;">:</td><td><div><table><tr><td style="font-weight:bold;vertical-align:top;">author</td><td style="vertical-align:top;">:</td><td><div>Your Name &lt;you@example.com&gt;</div></td></tr><tr><td style="font-weight:bold;vertical-align:top;">description</td><td style="vertical-align:top;">:</td><td><div>a cool new app</div></td></tr><tr><td style="font-weight:bold;vertical-align:top;">generator</td><td style="vertical-align:top;">:</td><td><div>Web2py Web Framework</div></td></tr><tr><td style="font-weight:bold;vertical-align:top;">keywords</td><td style="vertical-align:top;">:</td><td><div><table><tr><td><div>web2py</div></td></tr><tr><td><div>python</div></td></tr><tr><td><div>framework</div></td></tr></table></div></td></tr></table></div></td></tr><tr><td style="font-weight:bold;vertical-align:top;">models_to_run</td><td style="vertical-align:top;">:</td><td><div><table><tr><td><div>^\\w+\\.py$</div></td></tr><tr><td><div>^appadmin/\\w+\\.py$</div></td></tr><tr><td><div>^appadmin/index/\\w+\\.py$</div></td></tr></table></div></td></tr><tr><td style="font-weight:bold;vertical-align:top;">postprocessing</td><td style="vertical-align:top;">:</td><td><div><table></table></div></td></tr><tr><td style="font-weight:bold;vertical-align:top;">session_client</td><td style="vertical-align:top;">:</td><td><div>127.0.0.1</div></td></tr><tr><td style="font-weight:bold;vertical-align:top;">session_cookie_compression_level</td><td style="vertical-align:top;">:</td><td><div>None</div></td></tr><tr><td style="font-weight:bold;vertical-align:top;">session_cookie_expires</td><td style="vertical-align:top;">:</td><td><div>None</div></td></tr><tr><td style="font-weight:bold;vertical-align:top;">session_data_name</td><td style="vertical-align:top;">:</td><td><div>session_data_darkcloud1</div></td></tr><tr><td style="font-weight:bold;vertical-align:top;">session_file</td><td style="vertical-align:top;">:</td><td><div>&lt;open file &#x27;C:\\\\Users\\\\hd\\\\PycharmProjects\\\\untitled\\\\web2py\\\\applications\\\\darkcloud1\\\\sessions\\\\092\\\\1ec\\\\127.0.0.1-3409330e-f8df-496c-b78c-a7fffbf52421&#x27;, mode &#x27;rb+&#x27; at 0x000000000E16C930&gt;</div></td></tr><tr><td style="font-weight:bold;vertical-align:top;">session_filename</td><td style="vertical-align:top;">:</td><td><div>C:\\Users\\hd\\PycharmProjects\\untitled\\web2py\\applications\\darkcloud1\\sessions\\127.0.0.1-3409330e-f8df-496c-b78c-a7fffbf52421</div></td></tr><tr><td style="font-weight:bold;vertical-align:top;">session_hash</td><td style="vertical-align:top;">:</td><td><div>da703d530979a313ea29bee45eb2c33f</div></td></tr><tr><td style="font-weight:bold;vertical-align:top;">session_id</td><td style="vertical-align:top;">:</td><td><div>127.0.0.1-3409330e-f8df-496c-b78c-a7fffbf52421</div></td></tr><tr><td style="font-weight:bold;vertical-align:top;">session_id_name</td><td style="vertical-align:top;">:</td><td><div>session_id_darkcloud1</div></td></tr><tr><td style="font-weight:bold;vertical-align:top;">session_locked</td><td style="vertical-align:top;">:</td><td><div>True</div></td></tr><tr><td style="font-weight:bold;vertical-align:top;">session_masterapp</td><td style="vertical-align:top;">:</td><td><div>darkcloud1</div></td></tr><tr><td style="font-weight:bold;vertical-align:top;">session_new</td><td style="vertical-align:top;">:</td><td><div>False</div></td></tr><tr><td style="font-weight:bold;vertical-align:top;">session_storage_type</td><td style="vertical-align:top;">:</td><td><div>file</div></td></tr><tr><td style="font-weight:bold;vertical-align:top;">status</td><td style="vertical-align:top;">:</td><td><div>200</div></td></tr><tr><td style="font-weight:bold;vertical-align:top;">view</td><td style="vertical-align:top;">:</td><td><div>appadmin/index.html</div></td></tr></table></div>'
tRp275
sS'locals'
p276
(dp277
S'handlers'
p278
S'[<pydal.helpers.classes.TimingHandler object>]'
p279
sS'self'
p280
S'<pydal.adapters.sqlite.SQLite object>'
p281
sg48
S'(\'CREATE TABLE "endpoint_agents"(\\n    "endpoint_id..._flag" CHAR(1),\\n    PRIMARY KEY("endpoint_id")) ;\',)'
p282
sS'handler'
p283
S'<pydal.helpers.classes.TimingHandler object>'
p284
sS'command'
p285
S'\'CREATE TABLE "endpoint_agents"(\\n    "endpoint_id..._flag" CHAR(1),\\n    PRIMARY KEY("endpoint_id")) ;\''
p286
sS'kwargs'
p287
g21
sssS'traceback'
p288
S'Traceback (most recent call last):\n  File "C:\\Users\\hd\\PycharmProjects\\untitled\\web2py\\gluon\\restricted.py", line 219, in restricted\n    exec(ccode, environment)\n  File "C:\\Users\\hd\\PycharmProjects\\untitled\\web2py\\applications\\darkcloud1\\models\\db.py", line 179, in <module>\n    primarykey=[\'endpoint_id\'],\n  File "C:\\Users\\hd\\PycharmProjects\\untitled\\web2py\\gluon\\packages\\dal\\pydal\\base.py", line 586, in define_table\n    table = self.lazy_define_table(tablename, *fields, **args)\n  File "C:\\Users\\hd\\PycharmProjects\\untitled\\web2py\\gluon\\packages\\dal\\pydal\\base.py", line 620, in lazy_define_table\n    polymodel=polymodel)\n  File "C:\\Users\\hd\\PycharmProjects\\untitled\\web2py\\gluon\\packages\\dal\\pydal\\adapters\\base.py", line 797, in create_table\n    return self.migrator.create_table(*args, **kwargs)\n  File "C:\\Users\\hd\\PycharmProjects\\untitled\\web2py\\gluon\\packages\\dal\\pydal\\migrator.py", line 277, in create_table\n    self.adapter.create_sequence_and_triggers(query, table)\n  File "C:\\Users\\hd\\PycharmProjects\\untitled\\web2py\\gluon\\packages\\dal\\pydal\\adapters\\base.py", line 880, in create_sequence_and_triggers\n    self.execute(query)\n  File "C:\\Users\\hd\\PycharmProjects\\untitled\\web2py\\gluon\\packages\\dal\\pydal\\adapters\\__init__.py", line 67, in wrap\n    return f(*args, **kwargs)\n  File "C:\\Users\\hd\\PycharmProjects\\untitled\\web2py\\gluon\\packages\\dal\\pydal\\adapters\\base.py", line 412, in execute\n    rv = self.cursor.execute(command, *args[1:], **kwargs)\nOperationalError: near ""version_os"": syntax error\n'
p289
s.